(dp0
S'#truth'
p1
I2
sS'raining'
p2
I1
sS'#realestateph'
p3
I1
sS'#retoqueton'
p4
I1
sS'foul'
p5
I1
sS'woods'
p6
I1
sS'http://t.co/acvmnm1j75'
p7
I1
sS"friend's"
p8
I1
sS'@kay_series'
p9
I1
sS'now:3'
p10
I1
sS'happy...'
p11
I1
sS'#arsenal'
p12
I1
sS'doorknob...#yolo'
p13
I1
sS'@thatfliiguii'
p14
I1
sS'immature'
p15
I2
sS'shaving'
p16
I4
sS'bringing'
p17
I4
sS'#avi'
p18
I2
sS'@screamales'
p19
I1
sS'wednesday'
p20
I1
sS'crotch'
p21
I1
sS'#toouglytoohandle'
p22
I2
sS'#wasted'
p23
I3
sS'#dugoutbox'
p24
I1
sS'tired'
p25
I2
sS'bacon'
p26
I2
sS'@peythong:'
p27
I2
sS'second'
p28
I2
sS'$1000/wk'
p29
I3
sS'@rachaelfhillier'
p30
I1
sS'homey!!'
p31
I1
sS'fingers'
p32
I1
sS'thvough'
p33
I1
sS'hero'
p34
I2
sS'@venussucks:'
p35
I1
sS'singing...my'
p36
I1
sS'\xe2\x9d\xa4\xef\xb8\x8f'
p37
I3
sS'\xf0\x9f\x98\x91\xe2\x80\x9d'
p38
I1
sS'china'
p39
I1
sS'kids'
p40
I6
sS'#wedemboyz'
p41
I1
sS'reports'
p42
I1
sS'http://t.co/vaja2vwye4'
p43
I1
sS"s'mores"
p44
I1
sS'\xf0\x9f\x98\xab\xf0\x9f\x98\xab'
p45
I3
sS"i'm"
p46
I105
sS'http://t.co/pvocwwwsis'
p47
I1
sS'explained'
p48
I1
sS'female:'
p49
I1
sS'aul'
p50
I1
sS'#boombox'
p51
I1
sS'#glitzlipz\xe2\x80\xa6'
p52
I1
sS'#dreamswillcometrue'
p53
I1
sS'\xf0\x9f\x91\x8f\xf0\x9f\x98\x82'
p54
I2
sS'symphony'
p55
I1
sS'music'
p56
I1
sS'therefore'
p57
I1
sS'holy'
p58
I1
sS'mesmerize'
p59
I1
sS'hurt'
p60
I2
sS'99'
p61
I4
sS'glass'
p62
I1
sS'http://t.co/y3prffrcn8'
p63
I1
sS'tying'
p64
I1
sS'#georgeharri...'
p65
I17
sS'hole'
p66
I3
sS'hold'
p67
I1
sS'intake'
p68
I1
sS'locked'
p69
I1
sS'pursue'
p70
I1
sS'@plurwatches'
p71
I2
sS'caution'
p72
I1
sS'want'
p73
I15
sS'#gainz'
p74
I1
sS'absolute'
p75
I1
sS'#lezgo'
p76
I1
sS'travel'
p77
I2
sS'cyph'
p78
I2
sS'machine'
p79
I2
sS'hot'
p80
I5
sS'#goodtimes'
p81
I1
sS'...on'
p82
I1
sS'wrong'
p83
I2
sS'http://t.co/70nylkgsmm'
p84
I1
sS'@chrisburton'
p85
I2
sS'18th'
p86
I1
sS'didn`t'
p87
I1
sS'#oxford'
p88
I1
sS'keeps'
p89
I2
sS'\xf0\x9f\x91\x90\xf0\x9f\x98\xb4.'
p90
I1
sS'wing'
p91
I1
sS'wind'
p92
I1
sS'wine'
p93
I4
sS'pinkeye'
p94
I1
sS'school.'
p95
I1
sS'haha!!'
p96
I2
sS'flappybird'
p97
I1
sS'tenis'
p98
I2
sS'screaming'
p99
I1
sS'died?'
p100
I1
sS'@carlymichellec1'
p101
I1
sS'queue!'
p102
I1
sS'#weakraps'
p103
I1
sS'http://t.co/wf2my9mosq'
p104
I1
sS'#bluff'
p105
I1
sS'@leannebarry_'
p106
I1
sS'#booty'
p107
I1
sS'interrupt'
p108
I1
sS'#meditation'
p109
I1
sS'@sammyfam:'
p110
I1
sS'addictes'
p111
I1
sS'http://t.co/wpkg04vq96'
p112
I1
sS'arrow'
p113
I1
sS'#givenofucks'
p114
I1
sS'addicted'
p115
I1
sS'izzaizzaaa'
p116
I1
sS'http://t.co/myetzqrtrd'
p117
I1
sS'http://t.co/os2clrwxac'
p118
I1
sS'rt'
p119
I301
sS'rp'
p120
I1
sS'smh'
p121
I3
sS'#squirrely'
p122
I2
sS'@allisonbgroves'
p123
I2
sS'#goodnight'
p124
I1
sS'#theship'
p125
I3
sS'ate'
p126
I10
sS'#lifesux'
p127
I1
sS'marker...#yolo'
p128
I1
sS'atm'
p129
I1
sS'#actuallyjustspanishclassparty'
p130
I1
sS'heading'
p131
I1
sS"today's"
p132
I1
sS'steroids'
p133
I1
sS'http://t.co/5kyy0flp8j'
p134
I1
sS'#nawak'
p135
I1
sS'service'
p136
I1
sS'needed'
p137
I1
sS'@farrastafari'
p138
I1
sS'#itswhoyouare'
p139
I1
sS'chugging'
p140
I2
sS'bitter'
p141
I1
sS'listen'
p142
I3
sS'#same'
p143
I1
sS'http://t.co/ujm0tyo00i'
p144
I1
sS'#thankgod4growth'
p145
I1
sS'showed'
p146
I1
sS'http://t.co/klex8uf6ij'
p147
I1
sS'walloped'
p148
I1
sS'shower'
p149
I2
sS'feeling'
p150
I1
sS'#stream'
p151
I1
sS"lulu's"
p152
I1
sS'#naturalbeauty'
p153
I2
sS'well.'
p154
I4
sS'http://t.co/p2qhlpb5rm\xe2\x80\x9d'
p155
I1
sS'guys.'
p156
I2
sS'http://t.co/rj5xeh5swu'
p157
I2
sS'person'
p158
I7
sS'http://t.co/ixbepld4f8'
p159
I1
sS'\xf0\x9f\x91\xaf\xf0\x9f\x91\xaf'
p160
I1
sS'defiantly'
p161
I1
sS'cortaca'
p162
I1
sS'#on'
p163
I2
sS"men's"
p164
I1
sS'is...'
p165
I1
sS'mouth'
p166
I2
sS'long.'
p167
I1
sS'#heshtahg'
p168
I1
sS'episode'
p169
I1
sS'@harribillington'
p170
I1
sS'professor'
p171
I1
sS'on!!'
p172
I3
sS'came'
p173
I3
sS'saying'
p174
I11
sS'padded'
p175
I1
sS'#tourlife\xe2\x80\xa6'
p176
I1
sS'participate'
p177
I1
sS'#pune'
p178
I3
sS'busy'
p179
I2
sS'@free981:'
p180
I1
sS'rich'
p181
I1
sS'#follow'
p182
I6
sS'plate'
p183
I1
sS'#kony'
p184
I1
sS'#egypt'
p185
I1
sS'@willoc0nnor'
p186
I1
sS'autistic'
p187
I1
sS'pretzel'
p188
I1
sS'them!'
p189
I1
sS'release'
p190
I3
sS'#tomodachilife'
p191
I1
sS'#museum'
p192
I1
sS'lesson.'
p193
I1
sS'#taptap'
p194
I1
sS'fair'
p195
I1
sS'#wearerthemillers'
p196
I1
sS'\xe2\x80\x9c@hannahdrew_x3:'
p197
I2
sS'fail'
p198
I1
sS'hammer'
p199
I1
sS'people...#yolo'
p200
I2
sS'best'
p201
I9
sS'#lifeisgood'
p202
I5
sS'#minnie'
p203
I1
sS'#idontgiveafuck'
p204
I1
sS'#lifemotto'
p205
I1
sS'score'
p206
I1
sS'yogurt'
p207
I2
sS'men'
p208
I6
sS'@asos_megan'
p209
I1
sS'wtf'
p210
I2
sS'#toms'
p211
I1
sS'lactaid'
p212
I1
sS'\xf0\x9f\x98\x8b\xf0\x9f\x98\x82'
p213
I1
sS'planned'
p214
I1
sS'money.'
p215
I2
sS'canyon'
p216
I2
sS'humming'
p217
I1
sS'cardboard'
p218
I1
sS'frm'
p219
I1
sS'him...#yolo'
p220
I1
sS'#united'
p221
I1
sS'much'
p222
I13
sS'pro'
p223
I1
sS'#sweggg'
p224
I1
sS'life'
p225
I38
sS'@ddlovato:'
p226
I2
sS'ariana'
p227
I1
sS'lift'
p228
I1
sS'child'
p229
I1
sS'worked'
p230
I3
sS'http://t.co/nditbn5tv6'
p231
I1
sS'chill'
p232
I1
sS'#sel'
p233
I1
sS'#yoloswag420jesus'
p234
I8
sS'rent'
p235
I1
sS'played'
p236
I3
sS'violin'
p237
I1
sS'#gwtw'
p238
I1
sS'http://t.co/jntaxdlywy'
p239
I1
sS'onnnnnn'
p240
I2
sS'thingy'
p241
I1
sS'things'
p242
I8
sS'batting'
p243
I1
sS'babies'
p244
I2
sS'http://t.co/fbsd7azunr'
p245
I1
sS'@flooo09'
p246
I1
sS'#d\xc3\xb3ndequed\xc3\xb3misombrero\xe2\x80\xa6'
p247
I1
sS'tuna'
p248
I1
sS'http://t.co/ivkbv4njyj'
p249
I1
sS'$1200'
p250
I1
sS'@canfieldfloor3:'
p251
I1
sS'academic'
p252
I1
sS'banana...#yolo'
p253
I2
sS'@allison_haan:'
p254
I1
sS'tomorrowland'
p255
I1
sS'previous'
p256
I1
sS'ham'
p257
I1
sS'easy'
p258
I4
sS'hat'
p259
I1
sS'#420blazeit'
p260
I1
sS'#toys'
p261
I4
sS'casually'
p262
I2
sS'#chill'
p263
I2
sS'sleep.'
p264
I3
sS'bobby'
p265
I1
sS'#asklittlemix'
p266
I1
sS'seaside'
p267
I2
sS'steps'
p268
I1
sS'@eiliscorcoran'
p269
I1
sS'right'
p270
I13
sS'old'
p271
I11
sS'crowd'
p272
I2
sS'people'
p273
I23
sS'ooooo'
p274
I2
sS'crown'
p275
I1
sS'@chantellelight'
p276
I1
sS'fork...#yolo'
p277
I1
sS'5:20am.'
p278
I1
sS'creep'
p279
I1
sS'\xe2\x80\x9c@classicpict:'
p280
I1
sS'lockdown'
p281
I1
sS'creative'
p282
I1
sS'http://t.co/ly7xpdloaj'
p283
I1
sS'@goodlifedepot:'
p284
I1
sS'foo'
p285
I1
sS'shoreline\xe2\x80\xa6'
p286
I2
sS'#gohard'
p287
I1
sS'#livebetter'
p288
I1
sS'losing'
p289
I2
sS'@keeeleah'
p290
I1
sS'http://t.co/ce1nolox4h'
p291
I1
sS'#mexico'
p292
I2
sS'http://t.co/qh4ahvt5tp'
p293
I1
sS'#rest'
p294
I1
sS'#nsfw'
p295
I2
sS'raises'
p296
I1
sS'@imnotthekind:'
p297
I1
sS'soz'
p298
I2
sS'hallo'
p299
I1
sS'support'
p300
I2
sS'#illuminati'
p301
I1
sS'happy'
p302
I19
sS'#dicks'
p303
I1
sS'#minnesota'
p304
I1
sS'taft!'
p305
I2
sS'frandz'
p306
I2
sS'soldering'
p307
I1
sS'#2turnt'
p308
I2
sS'http://t.co/ooi7kyoq0f'
p309
I1
sS'proud'
p310
I2
sS'bien*'
p311
I1
sS'#eurotrip'
p312
I1
sS'http://t.co/vq38an5pqn'
p313
I1
sS'great!!!!!'
p314
I2
sS'us'
p315
I9
sS'floor'
p316
I5
sS'(m)any'
p317
I1
sS'smell'
p318
I2
sS'#turnup'
p319
I8
sS"'s"
p320
I2
sS'http://t.co/xztlgnkl6z'
p321
I2
sS'rolling'
p322
I1
sS'#glozelle'
p323
I1
sS'nxt'
p324
I2
sS'airpotrt'
p325
I1
sS'packets'
p326
I2
sS'#greatbritishviners'
p327
I1
sS'time'
p328
I32
sS'puso'
p329
I1
sS'http://t.co/oqcvlpl4td'
p330
I1
sS':)'
p331
I7
sS'chain'
p332
I1
sS'stay.'
p333
I1
sS'davao'
p334
I1
sS':3'
p335
I4
sS'bribes'
p336
I1
sS'@_theylovelucy_'
p337
I1
sS'http://t.co/b2cyj6zk00'
p338
I1
sS'@kaitlynsergio:'
p339
I2
sS'#imsofucked'
p340
I1
sS'#drinks'
p341
I1
sS'coincidence?'
p342
I1
sS':o'
p343
I1
sS':d'
p344
I5
sS'armstrong?'
p345
I2
sS'liiiiike'
p346
I1
sS'minute'
p347
I1
sS'room'
p348
I5
sS'freaming'
p349
I1
sS'leave'
p350
I1
sS'diasco'
p351
I1
sS'subway'
p352
I1
sS'team'
p353
I10
sS'loads'
p354
I2
sS'bicycle:'
p355
I1
sS'bonfire'
p356
I1
sS'@hodanamazin'
p357
I1
sS'sign'
p358
I4
sS'sheeran'
p359
I1
sS'jameis'
p360
I1
sS'#420'
p361
I5
sS'@knoxbusted:'
p362
I1
sS'#independence'
p363
I1
sS'current'
p364
I2
sS'pretty.'
p365
I1
sS'falling'
p366
I4
sS'@yobails'
p367
I1
sS'http://t.co/nxabf1htp3'
p368
I1
sS'http://t.co/swe2h6plht'
p369
I1
sS'#initiation'
p370
I1
sS'alone'
p371
I2
sS'along'
p372
I1
sS'#gucci'
p373
I1
sS'wherever'
p374
I1
sS'love'
p375
I34
sS'http://t.co/qweba65owt'
p376
I1
sS'terribly.'
p377
I1
sS'bloody'
p378
I2
sS'fake'
p379
I2
sS'#gideonknox'
p380
I1
sS'red'
p381
I4
sS'working'
p382
I5
sS'may'
p383
I1
sS'holibobs'
p384
I1
sS'@dancernicole2'
p385
I1
sS'#ineededthisipromise'
p386
I1
sS'scratched'
p387
I1
sS'introducing'
p388
I2
sS'@mehra_naina'
p389
I1
sS'afford'
p390
I1
sS'series!'
p391
I1
sS'twin!!'
p392
I2
sS'jurgen'
p393
I1
sS'#boys'
p394
I1
sS'behalf'
p395
I1
sS'logos'
p396
I1
sS'#nohomo'
p397
I1
sS'following'
p398
I2
sS'http://t.co/ioftibrzkr'
p399
I1
sS'awesome'
p400
I3
sS'dat.'
p401
I1
sS'#dubailife'
p402
I1
sS'stole'
p403
I1
sS'#dueck'
p404
I1
sS'#supperclub'
p405
I1
sS't-shirts'
p406
I1
sS'@louiseannejones'
p407
I1
sS'blasting'
p408
I1
sS'spot'
p409
I1
sS'screwed!'
p410
I1
sS'date'
p411
I5
sS'suck'
p412
I2
sS'#harmony'
p413
I1
sS'stress'
p414
I1
sS't-shirt.'
p415
I3
sS'puffs.'
p416
I1
sS'st'
p417
I1
sS'sa'
p418
I2
sS'pulled'
p419
I1
sS'se'
p420
I1
sS'@outofthebiack'
p421
I1
sS'#squad'
p422
I5
sS'years'
p423
I1
sS'course'
p424
I1
sS'highway...#yolo'
p425
I2
sS'early.'
p426
I1
sS'tori'
p427
I1
sS'#fuckit'
p428
I3
sS'@hollycampbell:'
p429
I1
sS'instantly'
p430
I1
sS'lancasters'
p431
I1
sS'@dulce_linaress:'
p432
I1
sS'matches'
p433
I1
sS'feelin'
p434
I1
sS'transformer...#yolo'
p435
I1
sS'episode:'
p436
I2
sS'#sickbeats'
p437
I1
sS'#nememes'
p438
I1
sS'plunk'
p439
I1
sS'#piratebay'
p440
I1
sS'#taylorgang'
p441
I4
sS'#endanuss'
p442
I1
sS"now...i'm"
p443
I1
sS'@benhbailey'
p444
I1
sS'turtle'
p445
I1
sS'quit!'
p446
I3
sS'#cel'
p447
I7
sS'#dontstandachance'
p448
I1
sS'seriously'
p449
I1
sS'internet'
p450
I2
sS'#instapic'
p451
I1
sS'million'
p452
I1
sS'#gamedev'
p453
I2
sS'quite'
p454
I2
sS'grandma'
p455
I1
sS'@wallaceyung:'
p456
I1
sS'#shots'
p457
I2
sS'training'
p458
I2
sS'ostrich'
p459
I1
sS'#fuckwithme'
p460
I1
sS'neglect'
p461
I1
sS'anymore!'
p462
I1
sS"girlfriend's"
p463
I1
sS'one'
p464
I34
sS'#gym'
p465
I1
sS'@notapaedo_'
p466
I1
sS'vote'
p467
I3
sS'custom'
p468
I2
sS'open'
p469
I2
sS'ripping'
p470
I1
sS'city'
p471
I2
sS'#butidontcare'
p472
I1
sS'#dontcare'
p473
I1
sS'twenties'
p474
I1
sS'stuffed'
p475
I1
sS'realization'
p476
I1
sS'much.'
p477
I2
sS'boyfriend'
p478
I1
sS'future'
p479
I2
sS'janitor'
p480
I1
sS'st.andrews'
p481
I1
sS'turned'
p482
I1
sS'sad'
p483
I3
sS'say'
p484
I7
sS'http://t.co/jzsxgeh0yq'
p485
I1
sS'http://t.co/ypwn1lzq86'
p486
I1
sS'saw'
p487
I2
sS'http://t.co/cifsu0y7kh'
p488
I1
sS'aftermovie:'
p489
I1
sS'#potd'
p490
I2
sS'aside'
p491
I1
sS'note'
p492
I1
sS'omfg'
p493
I2
sS'@findiesel_'
p494
I1
sS'take'
p495
I14
sS'wanting'
p496
I2
sS'#dgaf'
p497
I1
sS'@kaitlesh'
p498
I1
sS'#votepositive'
p499
I1
sS'knew'
p500
I2
sS'printed'
p501
I1
sS'styling.'
p502
I1
sS'something?'
p503
I1
sS'lawn'
p504
I1
sS'drive'
p505
I2
sS'not!'
p506
I1
sS'@darlaafranco_'
p507
I1
sS'@deeeaannee'
p508
I1
sS'http://t.co/sblnkfnds8'
p509
I1
sS'not.'
p510
I1
sS'http://t.co/ptracneaoc'
p511
I1
sS'walking'
p512
I23
sS'september\xe2\x80\xa6'
p513
I1
sS'mince'
p514
I1
sS'dance...#yolo'
p515
I1
sS'aggressive'
p516
I1
sS'1am.'
p517
I1
sS'#dauntless'
p518
I1
sS'\xe2\x9c\x8c'
p519
I1
sS'bomb!'
p520
I1
sS'\xe2\x9c\x8b'
p521
I1
sS'going'
p522
I55
sS'@shiftythegreen:'
p523
I1
sS'#college'
p524
I3
sS'row\xe2\x80\xa6'
p525
I1
sS'#lifegoals'
p526
I1
sS'bombe'
p527
I1
sS'borrow'
p528
I1
sS'worried'
p529
I1
sS'#raspberrybeer'
p530
I1
sS'food...#yolo'
p531
I1
sS'#instabling'
p532
I2
sS'hotness'
p533
I1
sS'crazy.'
p534
I1
sS'alone//feeling'
p535
I1
sS'banged'
p536
I1
sS'anyways'
p537
I1
sS'@crownedonsept17'
p538
I1
sS'@drake'
p539
I3
sS'#collegelife'
p540
I2
sS'enjoys'
p541
I1
sS'#ca'
p542
I1
sS'jumper'
p543
I1
sS'#slacker'
p544
I1
sS'anyway.'
p545
I1
sS'farts'
p546
I1
sS'http://t.co/nekjamcmtm'
p547
I1
sS'http://t.co/ichzkav2ga'
p548
I1
sS'anyway?'
p549
I1
sS'@advncdhindsight'
p550
I1
sS'mans'
p551
I2
sS'#freewifi'
p552
I1
sS'many'
p553
I5
sS'http://t.co/gugahfk0du'
p554
I1
sS'#2ndamendment'
p555
I1
sS"can't"
p556
I13
sS'photo!'
p557
I1
sS'3000'
p558
I1
sS'#delicius'
p559
I1
sS'article'
p560
I1
sS'photo:'
p561
I2
sS'want.'
p562
I1
sS'boat'
p563
I1
sS'caring'
p564
I2
sS'vacation'
p565
I2
sS'breath'
p566
I1
sS"#groxemk't"
p567
I1
sS'wants'
p568
I2
sS'http://t.co/qfvy8zzmqf'
p569
I1
sS'#obsessivebestfriends'
p570
I1
sS'photos'
p571
I1
sS'@hookupfessional:'
p572
I1
sS'hashtag'
p573
I2
sS'gisi'
p574
I1
sS'\xf0\x9f\x93\x96\xf0\x9f\x93\x9a'
p575
I1
sS'situation'
p576
I2
sS'\xf0\x9f\x98\x91\xe2\x80\x9d\xe2\x80\x9d\xf0\x9f\x98\x91\xf0\x9f\x98\xaa\xe2\x80\x9d'
p577
I1
sS'pinky'
p578
I1
sS'blah'
p579
I1
sS'#fiba'
p580
I1
sS'technology'
p581
I1
sS'it..'
p582
I2
sS'#regifted'
p583
I1
sS'#twat'
p584
I1
sS'#starstudent'
p585
I1
sS'singapore'
p586
I1
sS'\xf0\x9f\x8c\x9e\xf0\x9f\x8c\xba\xf0\x9f\x8c\xb8\xf0\x9f\x8c\xbb\xf0\x9f\x8c\xb9\xf0\x9f\x8d\x80\xf0\x9f\x8c\x9e'
p587
I1
sS'fam.'
p588
I1
sS'\xf0\x9f\x91\x8d\xe2\x9d\xa4\xef\xb8\x8f'
p589
I1
sS'supermarkets...#yolo'
p590
I1
sS'madness!'
p591
I1
sS'http://t.co/ns2bifxfaf'
p592
I1
sS'#roadtrip'
p593
I1
sS'summer'
p594
I1
sS'rest'
p595
I2
sS'schools'
p596
I1
sS'can\xe2\x80\x9d'
p597
I1
sS'#bu\xe2\x80\xa6'
p598
I2
sS'dicks'
p599
I1
sS'around'
p600
I8
sS'dark'
p601
I3
sS'traffic'
p602
I2
sS'#sorrymom'
p603
I2
sS'world'
p604
I3
sS'dare'
p605
I1
sS'http://t.co/kjfsljiylz'
p606
I1
sS'goodtime.....'
p607
I1
sS'teach.'
p608
I1
sS'posted:'
p609
I1
sS'clay'
p610
I2
sS'#shouldibeworried'
p611
I1
sS'#shopping'
p612
I1
sS'learning'
p613
I2
sS'scribbled..'
p614
I1
sS'#funtimeske'
p615
I1
sS'diving'
p616
I1
sS'#draking'
p617
I1
sS'#androidoneonamazon'
p618
I1
sS'@n_forsyth12'
p619
I2
sS"there'll"
p620
I1
sS'tube'
p621
I1
sS'#noflexzone'
p622
I1
sS'9/17/2014'
p623
I1
sS'intimate'
p624
I2
sS'#staystrong'
p625
I1
sS'throwback'
p626
I1
sS';)'
p627
I2
sS'@kaitlynn__99'
p628
I1
sS'@gigigigot:'
p629
I1
sS'ach'
p630
I1
sS'favorite'
p631
I2
sS'#friends'
p632
I6
sS'marshmallow'
p633
I2
sS'#wisdom'
p634
I1
sS'yay!'
p635
I1
sS'#lockmeup'
p636
I1
sS'homeless'
p637
I3
sS'parties'
p638
I1
sS'http://t.co/mdo5yogszx'
p639
I1
sS'http://t.co/thnxx7w9oj'
p640
I1
sS'#edm\xe2\x80\xa6'
p641
I1
sS'hey'
p642
I6
sS'\xf0\x9f\x98\xbc\xf0\x9f\x98\xbc\xf0\x9f\x98\xbc\xf0\x9f\x98\xbc'
p643
I1
sS'@kn1ghtharvey'
p644
I1
sS'tacobell'
p645
I1
sS'#raisinstastedelicious'
p646
I1
sS'http://t.co/fy0ly75qj4'
p647
I1
sS'http://t.co/okjejk0lwq'
p648
I1
sS'http://t.co/f9m5clkggl'
p649
I1
sS'survived'
p650
I1
sS'mich'
p651
I1
sS'buying'
p652
I4
sS"they're"
p653
I4
sS'ninacreme'
p654
I1
sS'dirty'
p655
I2
sS'stressin'
p656
I1
sS'@ashleywxgal'
p657
I1
sS'agree'
p658
I2
sS'swaggy'
p659
I1
sS'gone'
p660
I7
sS'butthole'
p661
I1
sS'af'
p662
I3
sS'exhausted'
p663
I1
sS'ah'
p664
I3
sS'#yoga'
p665
I1
sS'stealing'
p666
I1
sS'@haellski'
p667
I1
sS'@garvary1:'
p668
I5
sS'@spyder22886'
p669
I1
sS'watched'
p670
I1
sS'cream'
p671
I3
sS'#carpediem'
p672
I4
sS'yoga'
p673
I2
sS'graduate'
p674
I1
sS'@nungtheone'
p675
I1
sS'vocabulary'
p676
I2
sS'@chicfish:'
p677
I1
sS'midget'
p678
I1
sS'senioritis'
p679
I1
sS'slang'
p680
I1
sS'#lastminute'
p681
I1
sS'@countoflegoland'
p682
I1
sS'mask'
p683
I1
sS'xclassmates...'
p684
I1
sS'original'
p685
I1
sS'essay'
p686
I1
sS'consider'
p687
I1
sS'@pestoforce:'
p688
I1
sS'#turquoisehair'
p689
I1
sS'tv'
p690
I2
sS'forwood'
p691
I1
sS'dressing'
p692
I2
sS'smile'
p693
I2
sS'parliament.'
p694
I1
sS'http://t.co/q1wudqrykp'
p695
I1
sS'appointment'
p696
I1
sS'aianna.'
p697
I1
sS'@galaelf:'
p698
I1
sS'@peterolssonmedh'
p699
I1
sS'#wed\xe2\x80\xa6'
p700
I1
sS'freebee'
p701
I1
sS'#detox'
p702
I1
sS'http://t.co/m8b5ax72zl'
p703
I1
sS'#thought4today:'
p704
I1
sS'ocean...#yolo'
p705
I1
sS'large'
p706
I2
sS'#badboy'
p707
I1
sS'harry'
p708
I2
sS'#drunk'
p709
I1
sS'up....#yolo'
p710
I1
sS'#translator'
p711
I1
sS'crayons...#yolo'
p712
I1
sS'past'
p713
I5
sS'pass'
p714
I1
sS'richard'
p715
I1
sS'http://t.co/fzv\xe2\x80\xa6'
p716
I1
sS'xox'
p717
I1
sS'fuckn'
p718
I1
sS'fucke'
p719
I1
sS'@sykurmolarnir_'
p720
I1
sS'full'
p721
I3
sS'hash'
p722
I2
sS'#clan'
p723
I1
sS'hours'
p724
I6
sS'#yemaya'
p725
I1
sS'v-neck'
p726
I1
sS'@nevesthetypeof:'
p727
I2
sS'#mixingdrinks'
p728
I1
sS'http://t.co/0aj72qgfg8'
p729
I2
sS'experience'
p730
I2
sS'http://t.co/a93wy9kjts'
p731
I1
sS'fuck.'
p732
I1
sS'pick'
p733
I5
sS'#sunset'
p734
I1
sS'#eg'
p735
I1
sS'via'
p736
I9
sS'followed'
p737
I1
sS'#emabestfansarianagrande'
p738
I1
sS'vip'
p739
I1
sS'@saidomohamed:'
p740
I1
sS'gosh'
p741
I3
sS'#topbanter'
p742
I1
sS'orientation'
p743
I1
sS'attendance'
p744
I1
sS'watch:'
p745
I1
sS'teen'
p746
I1
sS'door'
p747
I1
sS'http://t.co/hbb6xljrnk'
p748
I1
sS'damien'
p749
I1
sS'mall'
p750
I2
sS'online!'
p751
I1
sS'learn'
p752
I2
sS'@nevendingshit'
p753
I1
sS'#vagueinsomnia'
p754
I1
sS'40mph'
p755
I1
sS'accept'
p756
I1
sS'donating'
p757
I1
sS'plan.'
p758
I2
sS'gallon'
p759
I1
sS'dress'
p760
I2
sS'huge'
p761
I1
sS'masses!'
p762
I1
sS'everything.'
p763
I1
sS'@visitarusha:'
p764
I2
sS'@djjclayton'
p765
I1
sS'stares.'
p766
I1
sS'#420blaze'
p767
I2
sS'@shirleey__n'
p768
I1
sS'@mattbango:'
p769
I1
sS'entrepreneurship'
p770
I1
sS'soundtrack'
p771
I1
sS'plane'
p772
I1
sS'@realchloestar'
p773
I1
sS"computer's"
p774
I1
sS'authentic'
p775
I1
sS'resemble'
p776
I1
sS'http://t.co/nw1ksmfwzn'
p777
I1
sS'@rjmatthews10'
p778
I1
sS'http://t.co/htv4tgixcr'
p779
I1
sS'paypal!'
p780
I1
sS'http://t.co/rk8nr0k79s'
p781
I1
sS'paper'
p782
I3
sS'@ectransfers:'
p783
I1
sS'course!'
p784
I2
sS'#hits'
p785
I1
sS'#drank'
p786
I1
sS'@juniorcit0:'
p787
I1
sS'sauce'
p788
I2
sS'@armindinoavdic:'
p789
I1
sS'#and'
p790
I1
sS'skipped'
p791
I4
sS'@oyesmziah'
p792
I3
sS'#totezspecialbeerz'
p793
I1
sS'bought'
p794
I4
sS'it!'
p795
I5
sS'great!'
p796
I1
sS'weeds'
p797
I1
sS'idols'
p798
I1
sS'http://t.co/h6i5o6rpsf'
p799
I1
sS'#tylj'
p800
I4
sS'all!'
p801
I1
sS'always'
p802
I8
sS'knight'
p803
I2
sS'#practicewhatyoupreach'
p804
I1
sS'found'
p805
I4
sS'rise.'
p806
I1
sS'really'
p807
I11
sS'#seetheworld'
p808
I1
sS'missed'
p809
I2
sS'@dongiovannirecs'
p810
I1
sS'#bridge'
p811
I1
sS'http://t.co/qwtv9y0kwh'
p812
I1
sS'highway'
p813
I1
sS'@alix_crane'
p814
I1
sS'#semtember'
p815
I1
sS'fatass'
p816
I1
sS'tomorrow!!!'
p817
I1
sS'bumper'
p818
I1
sS'account\xf0\x9f\x98\x82\xf0\x9f\x98\x82'
p819
I2
sS'http://t.co/s2wxyjvmzd'
p820
I1
sS'ft.'
p821
I9
sS'yes..'
p822
I1
sS'http://t.co/j0dvhovmyk'
p823
I1
sS'@dr0pdeadpls:'
p824
I1
sS'@ismailrahaman01'
p825
I2
sS'guest'
p826
I1
sS'sure!'
p827
I4
sS'introduction'
p828
I1
sS'#spicylemonade'
p829
I1
sS'ifgf'
p830
I1
sS'heads...#yolo'
p831
I2
sS'@nachtwolfe'
p832
I1
sS'\xf0\x9f\x98\x98'
p833
I1
sS'\xf0\x9f\x98\x9c'
p834
I4
sS'\xf0\x9f\x98\x92'
p835
I1
sS'\xf0\x9f\x98\x90'
p836
I1
sS'\xf0\x9f\x98\x95'
p837
I1
sS'\xf0\x9f\x98\x8b'
p838
I1
sS'\xf0\x9f\x98\x8a'
p839
I1
sS'\xf0\x9f\x98\x8e'
p840
I4
sS'\xf0\x9f\x98\x8d'
p841
I1
sS'\xf0\x9f\x98\x82'
p842
I11
sS'\xf0\x9f\x98\x81'
p843
I1
sS'\xf0\x9f\x98\x85'
p844
I1
sS'\xf0\x9f\x98\xb3'
p845
I2
sS'\xf0\x9f\x98\xb4'
p846
I1
sS'\xf0\x9f\x98\xac'
p847
I1
sS'http://t.co/l4gusj7zvm'
p848
I1
sS'(3)'
p849
I1
sS'#cat'
p850
I1
sS'#illuminaticonfirmed'
p851
I1
sS'sell'
p852
I8
sS'#scumbagwoodall'
p853
I1
sS'also'
p854
I9
sS'#stayreal'
p855
I1
sS'play'
p856
I3
sS'2am'
p857
I2
sS'gomaroons'
p858
I1
sS'#dota2'
p859
I1
sS'#experience'
p860
I1
sS'sometimes'
p861
I6
sS'#raspberry'
p862
I1
sS'http://t.co/fmc47iss29'
p863
I1
sS'anthem'
p864
I1
sS'spam.'
p865
I1
sS'ugh'
p866
I1
sS'golf'
p867
I2
sS'\xf0\x9f\x91\x91\xf0\x9f\x91\x91\xe2\x9d\xa4\xef\xb8\x8f\xef\xb8\x8f#me'
p868
I1
sS'session'
p869
I1
sS'#thebeatles'
p870
I17
sS'loyalcoalition'
p871
I1
sS'#mypicturewiththebeatles'
p872
I17
sS'failed'
p873
I4
sS'condom'
p874
I4
sS'#ddtyme'
p875
I2
sS'@terribleq_:'
p876
I1
sS'#bikramyoga'
p877
I1
sS'@lhillyer3:'
p878
I1
sS'#thirsty'
p879
I1
sS'#photoshop'
p880
I2
sS'weeks.'
p881
I1
sS'(via'
p882
I1
sS'http://t.co/ghm5atxufg'
p883
I1
sS'@sarahemetz'
p884
I1
sS'@seldenom13'
p885
I1
sS'caramel'
p886
I1
sS'@kirstern'
p887
I2
sS'#class'
p888
I1
sS'river'
p889
I1
sS'grandmom'
p890
I2
sS'insane'
p891
I1
sS'set'
p892
I4
sS'http://t.co/mef88sbgfy'
p893
I1
sS'porno...'
p894
I1
sS'sex'
p895
I3
sS'see'
p896
I12
sS'sec'
p897
I1
sS'migration'
p898
I1
sS'allie'
p899
I1
sS'movie'
p900
I4
sS'http://t.co/3prwyxqsbv'
p901
I1
sS'currently'
p902
I3
sS'http://t.co/zsiey1sta8'
p903
I1
sS'compliment'
p904
I1
sS'#wattpad'
p905
I1
sS'brewing'
p906
I1
sS'http://t.co/fwzhalcnhm'
p907
I1
sS'shoe'
p908
I1
sS'lass'
p909
I1
sS'last'
p910
I13
sS'barely'
p911
I2
sS'@monstcr'
p912
I1
sS'let'
p913
I4
sS'whole'
p914
I6
sS'@jordocowan'
p915
I1
sS'ollo'
p916
I1
sS'bell'
p917
I1
sS'#suckit'
p918
I1
sS'smashing'
p919
I1
sS'#larrycameout'
p920
I1
sS'@stevenn_quinn'
p921
I2
sS'church'
p922
I2
sS'belt'
p923
I1
sS'invented'
p924
I1
sS'originators'
p925
I1
sS'@trolling_stone_:'
p926
I1
sS'http://t.co/ilsnxffaoc'
p927
I1
sS'hitting'
p928
I2
sS'@dablackjackgirl'
p929
I1
sS'#dolcegabbana'
p930
I1
sS'http://t.co/xn0o1lvn0q'
p931
I2
sS'3:'
p932
I2
sS'fire'
p933
I1
sS"what's"
p934
I2
sS'#humpday.'
p935
I1
sS'teensquotess:'
p936
I1
sS'straight'
p937
I1
sS'sesame'
p938
I1
sS'#aplicaecomemora'
p939
I1
sS'#datasstho'
p940
I1
sS'cages'
p941
I1
sS'swim'
p942
I1
sS'bed..going'
p943
I1
sS'#gg'
p944
I2
sS'http://t.co/xjr4mkkeue'
p945
I1
sS'stickers.'
p946
I1
sS'voy'
p947
I2
sS'funny'
p948
I2
sS'@pauvrepirate'
p949
I1
sS'tells'
p950
I2
sS'http://t.co/w5mwvk7k9e'
p951
I1
sS'rules'
p952
I1
sS'#pretty'
p953
I2
sS'survey'
p954
I1
sS'http://t.co/sfjf4w8yhf'
p955
I1
sS'snail'
p956
I1
sS'teeter'
p957
I1
sS'#happiness'
p958
I2
sS'levels'
p959
I1
sS'gonna'
p960
I27
sS'staci'
p961
I2
sS'kno'
p962
I1
sS'changes...'
p963
I1
sS'yet.'
p964
I2
sS'regretting'
p965
I1
sS'http://t.co/vh9zduvhwz'
p966
I1
sS'listening'
p967
I2
sS'#chicago'
p968
I3
sS'soooooooooooo'
p969
I2
sS'#vacay'
p970
I1
sS'#asian'
p971
I1
sS'#selfgrowth'
p972
I1
sS'#selfieception'
p973
I1
sS'chest'
p974
I2
sS'signals'
p975
I3
sS'parents'
p976
I5
sS'crying'
p977
I2
sS'\xf0\x9f\x99\x88\xf0\x9f\x98\x8f'
p978
I1
sS'couple'
p979
I3
sS'#airplanecowboy'
p980
I1
sS'@freshly_pressed:'
p981
I1
sS'quest'
p982
I1
sS'flannel'
p983
I1
sS'#nfl'
p984
I1
sS'continue'
p985
I2
sS'https://t.co/8pwqtvd5ey'
p986
I1
sS'#amiright'
p987
I1
sS'http://t.co/pygmfcc8mu'
p988
I1
sS'http://t.co/3cpmodd5bz'
p989
I1
sS'palz'
p990
I1
sS'#neverforget'
p991
I1
sS'spring'
p992
I4
sS'@serrafresh'
p993
I2
sS'b4'
p994
I1
sS'#reunion'
p995
I1
sS'@minkabjorck'
p996
I1
sS'woeeeey!'
p997
I2
sS'bc'
p998
I11
sS'#follow4f...'
p999
I4
sS'bt'
p1000
I1
sS'#kappa'
p1001
I1
sS'ping!'
p1002
I1
sS'trisikad'
p1003
I1
sS'#yum'
p1004
I2
sS'anything'
p1005
I4
sS'netflix'
p1006
I1
sS'repair'
p1007
I1
sS'\xf0\x9f\x98\x82\xf0\x9f\x92\x98\xf0\x9f\x98\x9c\xe2\x9c\x8c\xef\xb8\x8f'
p1008
I2
sS'servers'
p1009
I1
sS'#mdm'
p1010
I1
sS'appropriate'
p1011
I1
sS'primarily'
p1012
I1
sS'spending'
p1013
I2
sS'\xe2\x9c\x8c\xef\xb8\x8f\xf0\x9f\x92\x81\xf0\x9f\x90\xa8'
p1014
I1
sS'sneaks'
p1015
I1
sS'u2'
p1016
I1
sS'suit'
p1017
I2
sS'@misshc:'
p1018
I1
sS'@optus'
p1019
I48
sS'hawaiian'
p1020
I1
sS'#hoco2014'
p1021
I5
sS'#ijustcouldntposenicely'
p1022
I1
sS'link'
p1023
I3
sS'http://t.co/8p1tovwk1a'
p1024
I1
sS'#etc'
p1025
I1
sS'line'
p1026
I4
sS'open.'
p1027
I1
sS'twenty-one!'
p1028
I1
sS'ur'
p1029
I2
sS'@goodreads'
p1030
I1
sS'#lunch'
p1031
I3
sS'@ubaidshaikh11:'
p1032
I1
sS'e-mails'
p1033
I1
sS'living!'
p1034
I1
sS'#mincepiemadness'
p1035
I1
sS'tv...#yolo'
p1036
I1
sS'hell!'
p1037
I1
sS'#theregoesmytaximoney'
p1038
I1
sS'#mediastartup'
p1039
I1
sS'picking'
p1040
I1
sS'#youre21'
p1041
I2
sS'95%'
p1042
I1
sS'rabies'
p1043
I1
sS'unicorn...#yolo'
p1044
I1
sS'#swerve'
p1045
I2
sS'#sciencebanter'
p1046
I1
sS'#toocoolforschool'
p1047
I1
sS'@aliciamadi22:'
p1048
I1
sS'ago'
p1049
I3
sS'lane'
p1050
I1
sS'land'
p1051
I1
sS'http://t.co/vxy1pvvohd'
p1052
I1
sS'\xf0\x9f\x91\x8d\xf0\x9f\x91\x8d\xf0\x9f\x91\x8d\xf0\x9f\x91\x8d'
p1053
I1
sS'http://t.co/u3rlatgewh'
p1054
I1
sS'age'
p1055
I2
sS'hella'
p1056
I1
sS'carpet...#yolo'
p1057
I1
sS'fresh'
p1058
I1
sS'cheetos'
p1059
I1
sS'#homie'
p1060
I1
sS'gossip'
p1061
I1
sS'http://t.co/0hfhrcfhux'
p1062
I1
sS'young'
p1063
I4
sS'send'
p1064
I1
sS'sent'
p1065
I4
sS'garden'
p1066
I1
sS'@therealyd'
p1067
I4
sS'animals'
p1068
I2
sS'connichi'
p1069
I1
sS'magic'
p1070
I1
sS'quiz.'
p1071
I1
sS'try'
p1072
I4
sS'rack'
p1073
I1
sS'@dthomp1195'
p1074
I1
sS'video'
p1075
I3
sS'sweats'
p1076
I12
sS'that!'
p1077
I2
sS'that?'
p1078
I2
sS'flowing'
p1079
I1
sS'rd.'
p1080
I1
sS'bird'
p1081
I1
sS'weekends.'
p1082
I1
sS'i\xe2\x80\x98m'
p1083
I1
sS'amirite?'
p1084
I2
sS'lek'
p1085
I2
sS'punch'
p1086
I1
sS'http://t.co/wjzqj9skl6'
p1087
I1
sS'#rekt'
p1088
I2
sS'@shannonstclairr'
p1089
I2
sS'@thedopest600:'
p1090
I1
sS'http://t.co/jjffxjervo'
p1091
I1
sS'maken'
p1092
I1
sS'great'
p1093
I6
sS'extreme'
p1094
I1
sS'http://t.co/k8gnp6wnvh'
p1095
I1
sS'makes'
p1096
I2
sS'#self!!'
p1097
I1
sS'#waiter'
p1098
I1
sS'#bfflzzz'
p1099
I1
sS'(me'
p1100
I2
sS'standing'
p1101
I3
sS'zip'
p1102
I2
sS'@nashiruddinshah'
p1103
I1
sS'next'
p1104
I6
sS'@hellochristiaan'
p1105
I1
sS'zin'
p1106
I1
sS'#foreverinlove'
p1107
I2
sS'baby'
p1108
I2
sS'#truefan'
p1109
I1
sS'practicing'
p1110
I1
sS'challenge'
p1111
I1
sS'reproduce'
p1112
I1
sS'dreams~'
p1113
I1
sS'@celest_3:'
p1114
I1
sS'http://t.co/8v42nw1mak'
p1115
I1
sS'#selfie'
p1116
I5
sS'#gorgeous...'
p1117
I20
sS'process'
p1118
I1
sS'slim'
p1119
I1
sS'high'
p1120
I6
sS'#newbeginnings'
p1121
I1
sS'@clublexx'
p1122
I4
sS'class.'
p1123
I1
sS'destroying'
p1124
I1
sS'http://t.co/pwxzu0pqkd'
p1125
I1
sS'class!'
p1126
I1
sS'#soda'
p1127
I1
sS'#fast'
p1128
I1
sS'stand'
p1129
I1
sS'especial'
p1130
I1
sS'#boompanessss'
p1131
I1
sS'#justsaying'
p1132
I1
sS'evry'
p1133
I1
sS'#igottacomewatchyoskillz'
p1134
I1
sS'fits'
p1135
I1
sS'@ashvalleyinc'
p1136
I1
sS'@rmrecords_inc'
p1137
I9
sS'noises'
p1138
I1
sS'classy'
p1139
I1
sS'miss...'
p1140
I1
sS'evolutionary'
p1141
I1
sS'move'
p1142
I2
sS'yoxiam'
p1143
I9
sS'http://t.co/yicmeg0udk'
p1144
I1
sS'perfect'
p1145
I2
sS'degrees'
p1146
I1
sS'spoiling'
p1147
I1
sS'2014'
p1148
I4
sS'@austinbeerguide:'
p1149
I1
sS'#wecute'
p1150
I2
sS'#agmech1'
p1151
I1
sS'kiss'
p1152
I2
sS'#reallife'
p1153
I1
sS'realize'
p1154
I11
sS'spilling'
p1155
I1
sS'4:41'
p1156
I2
sS'@eleanorrocha:'
p1157
I2
sS'denzel'
p1158
I1
sS'glasses'
p1159
I1
sS'books'
p1160
I1
sS'#asians'
p1161
I1
sS'bigfoot'
p1162
I1
sS'@youtube'
p1163
I1
sS'cunt.'
p1164
I1
sS'jeep'
p1165
I1
sS'#thursday'
p1166
I1
sS'#bakedcheetos'
p1167
I1
sS'#tmobile'
p1168
I1
sS'@mccarruthers'
p1169
I1
sS'@_taylorsloan'
p1170
I1
sS'#wergettingmarried'
p1171
I1
sS'things.'
p1172
I2
sS'#goodtime'
p1173
I1
sS'could'
p1174
I4
sS'frens'
p1175
I1
sS'#chemsitrybanter'
p1176
I1
sS'scare'
p1177
I1
sS'touring'
p1178
I1
sS'jesus'
p1179
I1
sS'short.'
p1180
I1
sS'have.'
p1181
I1
sS'#lubys'
p1182
I1
sS'#getonmylevel'
p1183
I1
sS'@opticvines:'
p1184
I1
sS'fuckers'
p1185
I2
sS'two!'
p1186
I1
sS'backdoor'
p1187
I1
sS'\xf0\x9f\x92\xaa\xf0\x9f\x91\x8d'
p1188
I1
sS'spaceship'
p1189
I1
sS'@ipautawebsite:'
p1190
I1
sS"joan's?"
p1191
I1
sS'stomach'
p1192
I1
sS'lot'
p1193
I1
sS'shorts'
p1194
I4
sS'#vscocam'
p1195
I2
sS'@ktdecozar'
p1196
I1
sS'#love'
p1197
I32
sS'allergic'
p1198
I1
sS'collecting'
p1199
I1
sS'#whatyouthinkduringclass'
p1200
I1
sS'\xf0\x9f\x98\x88\xf0\x9f\x92\x8b1\xe2\x83\xa33\xe2\x83\xa3'
p1201
I1
sS'duck...#yolo'
p1202
I1
sS'tonight'
p1203
I13
sS'gentle'
p1204
I1
sS'http://t.co/nn5ktw0hgx'
p1205
I1
sS'studying'
p1206
I4
sS'holidays!!!!'
p1207
I1
sS'#livelifetothefullest'
p1208
I1
sS'chibi'
p1209
I2
sS'soar'
p1210
I1
sS'calculus'
p1211
I1
sS'10.30'
p1212
I1
sS'#poker'
p1213
I1
sS'@iamtich'
p1214
I1
sS'face'
p1215
I7
sS'#irony'
p1216
I1
sS"you'll"
p1217
I3
sS"korea'"
p1218
I1
sS'this\xe2\x80\xa6.'
p1219
I1
sS'fact'
p1220
I2
sS'you:'
p1221
I1
sS'oreos'
p1222
I1
sS'http://t.co/bstyqodnkh'
p1223
I1
sS'bring'
p1224
I2
sS'mean!'
p1225
I1
sS'rough'
p1226
I2
sS'torrenting'
p1227
I1
sS'jv-6pm/vars-7pm.'
p1228
I4
sS'#pool'
p1229
I1
sS'#time'
p1230
I2
sS'jar'
p1231
I1
sS'#migration'
p1232
I2
sS'riding'
p1233
I5
sS'gaaaawsh'
p1234
I1
sS'hope'
p1235
I9
sS'meant'
p1236
I1
sS'means'
p1237
I4
sS'lmao.'
p1238
I1
sS'lucky'
p1239
I2
sS'bike.'
p1240
I2
sS'#ohwell'
p1241
I3
sS'@ksteps_'
p1242
I1
sS'\xf0\x9f\x98\x86\xf0\x9f\x98\x86\xf0\x9f\x98\x86\xf0\x9f\x98\x86\xf0\x9f\x98\x86'
p1243
I1
sS'neons'
p1244
I1
sS'@nwoody5:'
p1245
I1
sS'stuff'
p1246
I2
sS"ridin'"
p1247
I1
sS'@dukey_bby:'
p1248
I2
sS'#dalailama'
p1249
I1
sS'packet'
p1250
I1
sS'edition'
p1251
I2
sS'@scarlett_plott'
p1252
I1
sS'btc'
p1253
I1
sS'skateboarding'
p1254
I1
sS'once.'
p1255
I3
sS'packed'
p1256
I1
sS'invite.'
p1257
I1
sS'email'
p1258
I1
sS'keynote'
p1259
I1
sS'\xf0\x9f\x91\x8d\xe2\x80\x9d'
p1260
I1
sS"@thatscarlito's"
p1261
I1
sS'http://t.co/kgkkfrsbu6'
p1262
I1
sS'staring'
p1263
I2
sS'puft'
p1264
I2
sS'rams'
p1265
I4
sS'#gottacrankthat'
p1266
I2
sS'cm'
p1267
I2
sS'whispering'
p1268
I2
sS'yohoo.'
p1269
I1
sS'#eathealthy'
p1270
I1
sS'apologize'
p1271
I1
sS'smh.'
p1272
I1
sS'@afgavinstan'
p1273
I1
sS'\xe2\x80\x9c@terribleq_:'
p1274
I2
sS'neighbour'
p1275
I1
sS'#highschoolsweethearts'
p1276
I1
sS'dude'
p1277
I5
sS'eastbound'
p1278
I1
sS'vs'
p1279
I4
sS'#partners'
p1280
I1
sS'uggs'
p1281
I1
sS'tattoo'
p1282
I5
sS'https://t.co/nwb7h5xyn6'
p1283
I1
sS'@reattempt'
p1284
I1
sS'ball'
p1285
I3
sS'bald'
p1286
I1
sS'#weiner'
p1287
I1
sS'@missjuwimoosa:'
p1288
I1
sS'.@gloriatorre_so'
p1289
I2
sS'skew...\xc2\xbf'
p1290
I1
sS'#einstein'
p1291
I1
sS'35.'
p1292
I1
sS'#highrollersparty'
p1293
I3
sS'audio'
p1294
I1
sS'abibiz'
p1295
I1
sS'less'
p1296
I2
sS'moments'
p1297
I1
sS'going.'
p1298
I1
sS'#rehab'
p1299
I1
sS'#boycottnfl'
p1300
I1
sS'ganna'
p1301
I1
sS'day'
p1302
I28
sS'wet'
p1303
I2
sS'#vino'
p1304
I2
sS'gwhs'
p1305
I1
sS'http://t.co/dtyosomg4b'
p1306
I2
sS'porn...'
p1307
I2
sS'headlining'
p1308
I1
sS'cedar'
p1309
I1
sS'moment.'
p1310
I2
sS'#iguazufalls'
p1311
I1
sS'#malithperera'
p1312
I1
sS'life!...#yolo'
p1313
I1
sS'\xf0\x9f\x8d\xbb\xf0\x9f\x8d\xbb\xf0\x9f\x8d\xbb\xf0\x9f\x8d\xbb\xf0\x9f\x8d\xbb'
p1314
I1
sS'become'
p1315
I1
sS"patrick's"
p1316
I2
sS'#2013'
p1317
I1
sS'#2012'
p1318
I1
sS'#2014'
p1319
I1
sS'@gettincocky'
p1320
I1
sS'#vimeo'
p1321
I1
sS'http://t.co/lv4fcd653c'
p1322
I1
sS'#life'
p1323
I17
sS'literally'
p1324
I5
sS'avoid'
p1325
I1
sS'30-28'
p1326
I1
sS'@joelembiid:'
p1327
I1
sS'woohoo'
p1328
I1
sS'keystone'
p1329
I1
sS'#whitetrash'
p1330
I1
sS'uhhhh'
p1331
I1
sS'biology'
p1332
I1
sS'blowing'
p1333
I1
sS'http://t.co/lfhymu5uxw'
p1334
I1
sS'http://t.co/nhqdvevbgx'
p1335
I1
sS'#ihaveabighugwaiting'
p1336
I1
sS'http://t.co/q9qjnuazgo'
p1337
I1
sS'@the_helenkeller:'
p1338
I1
sS'nuts!'
p1339
I1
sS'vs.'
p1340
I1
sS'hiding'
p1341
I1
sS'@siicopata'
p1342
I1
sS'sister'
p1343
I3
sS'lifestyle'
p1344
I2
sS'@0heyitsjay:'
p1345
I1
sS'#yolo\xe2\x99\xa5'
p1346
I1
sS'tswift'
p1347
I1
sS'#lifting'
p1348
I1
sS'#justinbieber'
p1349
I2
sS'http://t.co/lsdpqftzzb'
p1350
I1
sS'swimming'
p1351
I1
sS'pussy'
p1352
I3
sS'shirt\xe2\x80\xa6.because'
p1353
I1
sS'three'
p1354
I3
sS'#indiedev'
p1355
I2
sS'queensland'
p1356
I48
sS'#autumn'
p1357
I1
sS'camden'
p1358
I1
sS'#history'
p1359
I1
sS'@ox_sota'
p1360
I1
sS'naturally'
p1361
I1
sS'120mph'
p1362
I1
sS'delivery'
p1363
I1
sS'#xxx'
p1364
I9
sS'official'
p1365
I1
sS'whatevs'
p1366
I1
sS'trafford'
p1367
I1
sS'#nofilter'
p1368
I2
sS'irish'
p1369
I1
sS'life!!!'
p1370
I1
sS'#ukviners'
p1371
I1
sS'#crieveritiem'
p1372
I2
sS'#ceilidh'
p1373
I1
sS'#hollar'
p1374
I1
sS'sneakers\xf0\x9f\x98\x82'
p1375
I2
sS'#twin'
p1376
I1
sS'digga'
p1377
I1
sS'again.'
p1378
I1
sS'in.'
p1379
I3
sS'again?'
p1380
I1
sS'@turnkeyuk:'
p1381
I1
sS'http://t.co/fczunverqa'
p1382
I1
sS'badass'
p1383
I2
sS'#twitterafterdark'
p1384
I1
sS'in!'
p1385
I1
sS'@ljhrobin:'
p1386
I2
sS'@taylorjarviss'
p1387
I1
sS'#realtalk'
p1388
I1
sS'#unilad'
p1389
I1
sS'copy'
p1390
I1
sS'relationships'
p1391
I1
sS'biku'
p1392
I2
sS'chinese'
p1393
I1
sS'goooooooood'
p1394
I1
sS'tickle'
p1395
I1
sS'bike'
p1396
I2
sS'http://t.co/vymuiddjf6'
p1397
I1
sS'pansit!'
p1398
I1
sS'#instatagood'
p1399
I2
sS'worth'
p1400
I1
sS'blanket'
p1401
I1
sS'lecture'
p1402
I3
sS'month'
p1403
I1
sS'#summergirls'
p1404
I1
sS'chapel'
p1405
I1
sS'tickets'
p1406
I2
sS"we'll"
p1407
I1
sS'announced'
p1408
I1
sS'http://t.co/pqjpnr0zlb'
p1409
I1
sS'chew'
p1410
I1
sS'others.'
p1411
I1
sS'chem'
p1412
I3
sS'it...'
p1413
I1
sS'@catalinacsv'
p1414
I1
sS'tissue'
p1415
I1
sS'ugly'
p1416
I3
sS'officially'
p1417
I5
sS'women...#yolo'
p1418
I1
sS'told'
p1419
I4
sS'http://t.co/5wz8otxy6l'
p1420
I1
sS'http:/\xe2\x80\xa6'
p1421
I1
sS'#wtvislyfe'
p1422
I1
sS'#sexy'
p1423
I1
sS'\xe2\x80\x9c@sammmarra:'
p1424
I1
sS'michal'
p1425
I1
sS'study'
p1426
I8
sS'http://t.co/i1rbcwe8uj'
p1427
I1
sS'walkin'
p1428
I1
sS'http://t.\xe2\x80\xa6'
p1429
I1
sS'smoke'
p1430
I3
sS'aka'
p1431
I2
sS'@tripadvisor'
p1432
I1
sS'ever!!!!'
p1433
I1
sS'mayonnaise...#yolo'
p1434
I1
sS'virginity\xf0\x9f\x9a\x83'
p1435
I1
sS'bro'
p1436
I2
sS'#backtonaturecheddarcrackers'
p1437
I1
sS'http://t.co/oudvnjtzda'
p1438
I1
sS'http://t.co/d9pblddyvt'
p1439
I1
sS'#imlovingit'
p1440
I1
sS'bra'
p1441
I1
sS'sweater'
p1442
I1
sS'coins'
p1443
I1
sS'indiana'
p1444
I1
sS'#yolo\xe2\x9c\xa8'
p1445
I1
sS'haha'
p1446
I5
sS'pierced'
p1447
I2
sS'#ewkillme'
p1448
I1
sS'word'
p1449
I3
sS'wore'
p1450
I3
sS'#cashmoney'
p1451
I2
sS'work'
p1452
I20
sS'refusing'
p1453
I1
sS'@aashloe'
p1454
I1
sS'tinder'
p1455
I1
sS'myself...#yolo'
p1456
I1
sS'550'
p1457
I2
sS'#sixflags'
p1458
I1
sS'veggies'
p1459
I1
sS'shakin'
p1460
I1
sS'#fit'
p1461
I1
sS'pizza'
p1462
I3
sS'#imgoingtohell'
p1463
I1
sS'earlier'
p1464
I1
sS'lab'
p1465
I3
sS'funny...#yolo'
p1466
I1
sS'uisce'
p1467
I1
sS'law'
p1468
I18
sS'lap'
p1469
I3
sS'@hoakz89'
p1470
I3
sS'@_breeannmarie__:'
p1471
I2
sS'green'
p1472
I3
sS'#instalike'
p1473
I1
sS"'coz"
p1474
I1
sS'players...'
p1475
I1
sS'realizing'
p1476
I1
sS'salon'
p1477
I1
sS'eigen'
p1478
I1
sS'office'
p1479
I1
sS'zen'
p1480
I1
sS'6.0'
p1481
I2
sS'bombing'
p1482
I48
sS'@b0ringtweets:'
p1483
I1
sS'highlights'
p1484
I1
sS'#comeatme'
p1485
I48
sS'#makeup'
p1486
I1
sS'#thered'
p1487
I1
sS'jerking'
p1488
I1
sS'safe'
p1489
I2
sS'@halerondales'
p1490
I1
sS'break'
p1491
I5
sS'giraffe'
p1492
I1
sS'pjs'
p1493
I2
sS'bread'
p1494
I1
sS'#jajajaja'
p1495
I2
sS'@dulce_linaress'
p1496
I1
sS'alexis'
p1497
I1
sS'rocks'
p1498
I1
sS'#malaysiaday'
p1499
I1
sS'gicecrib'
p1500
I1
sS'http://t.co/vzykeu7e36'
p1501
I1
sS'list'
p1502
I4
sS'@rww'
p1503
I1
sS'#weedsmoker'
p1504
I4
sS'falcons'
p1505
I1
sS'cameras'
p1506
I1
sS'create.'
p1507
I2
sS'daniel'
p1508
I1
sS'#sleep.'
p1509
I1
sS'too...'
p1510
I2
sS'medicine'
p1511
I1
sS'dashing'
p1512
I1
sS"people's"
p1513
I5
sS'#lovemylife'
p1514
I1
sS'#nomnom'
p1515
I1
sS'maniac'
p1516
I1
sS'http://t.co/xj45ofz4ao'
p1517
I1
sS'ordering'
p1518
I1
sS'\xf0\x9f\x98\x98\xf0\x9f\x98\x82\xf0\x9f\x91\x8c'
p1519
I1
sS'@dan_mitre'
p1520
I1
sS'http://t.co/2oxnb8dqke'
p1521
I1
sS'another'
p1522
I5
sS'drones'
p1523
I1
sS'comic'
p1524
I1
sS'mojo'
p1525
I1
sS'crunches'
p1526
I1
sS'elevator'
p1527
I1
sS'http://t.co/dwkcojcxtp'
p1528
I1
sS'haircut...#yolo'
p1529
I1
sS'#vidaenlacama'
p1530
I1
sS'40th'
p1531
I1
sS'totter'
p1532
I1
sS'#peace'
p1533
I1
sS'http://t.co/j7a2xmgzzk'
p1534
I2
sS'albert'
p1535
I1
sS'cereal'
p1536
I1
sS'#late'
p1537
I1
sS'\xf0\x9f\x98\x81\xf0\x9f\x98\x8f\xf0\x9f\x91\x8f\xf0\x9f\x91\x8c\xf0\x9f\x92\x83'
p1538
I1
sS'iron'
p1539
I1
sS'@tylerstobbe'
p1540
I1
sS'@fogoneocolombia:'
p1541
I1
sS'lulz'
p1542
I1
sS'http://t.co/xw3vvtmbtn'
p1543
I1
sS'@kevjumba'
p1544
I1
sS'#paratodalavida'
p1545
I1
sS'#followme'
p1546
I5
sS'@vetter26'
p1547
I1
sS'https://t.co/np0ncslbgw'
p1548
I3
sS'http://t.co/mjqk91xu3m'
p1549
I1
sS'@krispykremeuk'
p1550
I1
sS'anatomy'
p1551
I1
sS'public...#yolo'
p1552
I1
sS'\xf0\x9f\x98\xad\xf0\x9f\x98\x82\xf0\x9f\x98\x82\xf0\x9f\x98\xad\xf0\x9f\x98\xad'
p1553
I1
sS'@davefouweather'
p1554
I1
sS'proverb'
p1555
I1
sS'bracket'
p1556
I1
sS'aunt'
p1557
I1
sS'boyfriends'
p1558
I1
sS'notion'
p1559
I1
sS'#ctb'
p1560
I2
sS'subtle'
p1561
I1
sS'#fom\xe2\x80\xa6'
p1562
I1
sS'toast'
p1563
I1
sS'@radomuzik'
p1564
I9
sS'em.'
p1565
I1
sS'hrs'
p1566
I1
sS'version'
p1567
I2
sS'bailando'
p1568
I1
sS'#werecool'
p1569
I2
sS'gym...'
p1570
I1
sS'dm'
p1571
I3
sS'dj'
p1572
I1
sS'http://t.co/inxxqrkjr2'
p1573
I1
sS'di'
p1574
I1
sS'de'
p1575
I3
sS'da'
p1576
I4
sS'ds'
p1577
I6
sS'doughnuts!'
p1578
I2
sS'#vivam\xc3\xa9xico'
p1579
I1
sS'steak'
p1580
I1
sS'w/'
p1581
I1
sS'lemonade'
p1582
I1
sS'bestiez'
p1583
I1
sS'@allisomething'
p1584
I1
sS'miserable'
p1585
I1
sS'actually....'
p1586
I1
sS'@xuan_cheryl'
p1587
I1
sS'#hehe!'
p1588
I2
sS'away'
p1589
I4
sS't-mobile'
p1590
I1
sS'drawn'
p1591
I1
sS'@packabeer:'
p1592
I1
sS'wa'
p1593
I1
sS'\xf0\x9f\x8d\xa9'
p1594
I1
sS'#holla'
p1595
I1
sS'\xf0\x9f\x8d\xbb'
p1596
I2
sS'cop'
p1597
I1
sS'cos'
p1598
I5
sS'ill'
p1599
I1
sS'coz'
p1600
I2
sS'fags'
p1601
I1
sS'\xf0\x9f\x8d\x95'
p1602
I1
sS'@omeed:'
p1603
I2
sS'com'
p1604
I1
sS'ily'
p1605
I1
sS'@kimgtzz:'
p1606
I1
sS'#getrektm8'
p1607
I1
sS'http://t.co/7qivjoszaf'
p1608
I1
sS'\xf0\x9f\x90\xb3'
p1609
I2
sS'\xf0\x9f\x90\xb6'
p1610
I1
sS'yolo.'
p1611
I1
sS'attacked'
p1612
I1
sS'accidently'
p1613
I1
sS'\xf0\x9f\x90\xa3'
p1614
I1
sS'#makeeveryseconddevine\xe2\x80\xa6'
p1615
I1
sS'road...#yolo'
p1616
I1
sS'#nobro'
p1617
I1
sS'@macmusic_tour'
p1618
I1
sS'\xf0\x9f\x90\x8b'
p1619
I1
sS'thursdays'
p1620
I1
sS'skipping'
p1621
I4
sS'dizzy'
p1622
I2
sS'cone'
p1623
I1
sS'#2mlg5u'
p1624
I1
sS'http://t.co/shsbij7eas'
p1625
I1
sS'(xbox)'
p1626
I1
sS'#crazy!!!'
p1627
I1
sS'hang'
p1628
I1
sS'rain'
p1629
I1
sS'hand'
p1630
I1
sS'@kertoch:'
p1631
I2
sS'@tara_savy'
p1632
I1
sS'#folloback'
p1633
I1
sS'tho'
p1634
I1
sS'client'
p1635
I1
sS'musical'
p1636
I1
sS'tha'
p1637
I1
sS"@rihanna's"
p1638
I2
sS'study...yet'
p1639
I1
sS'photo'
p1640
I3
sS'thanks'
p1641
I2
sS'7/11.'
p1642
I1
sS'heights...'
p1643
I2
sS'adding'
p1644
I1
sS'v\xe2\x80\xa6'
p1645
I1
sS'mix'
p1646
I1
sS'tired.'
p1647
I1
sS'@lawlesslawlizz'
p1648
I1
sS'http://t.co/jpygfferva'
p1649
I1
sS'boxes'
p1650
I1
sS'god.'
p1651
I1
sS'arpund'
p1652
I1
sS'night'
p1653
I19
sS'http://t.co/kmjbpivyf9'
p1654
I1
sS'#marijuana'
p1655
I1
sS'@gottachickens:'
p1656
I1
sS'lashes'
p1657
I1
sS'http://t.co/ogwtesez1a'
p1658
I1
sS'http://t.co/l51d4zbrat'
p1659
I1
sS'#extreme'
p1660
I1
sS'#liljon'
p1661
I1
sS'http://t.co/zzfmpu9x6p'
p1662
I1
sS'@adellesium'
p1663
I1
sS'iphone.'
p1664
I1
sS'#canttakeshitseriously'
p1665
I2
sS'#vinefavs'
p1666
I1
sS'tonight.'
p1667
I11
sS'#wtf'
p1668
I2
sS'contest!!'
p1669
I2
sS'tonight!'
p1670
I2
sS'tonight?'
p1671
I1
sS'asking'
p1672
I6
sS'4/20'
p1673
I1
sS'month.'
p1674
I1
sS'@daevonegreen'
p1675
I1
sS'month!'
p1676
I1
sS'marketing'
p1677
I1
sS'#aspen'
p1678
I1
sS'pose'
p1679
I1
sS'@jared_griffin:'
p1680
I1
sS'post'
p1681
I1
sS'#sanmike'
p1682
I1
sS'*il'
p1683
I1
sS'tho...#yolo'
p1684
I1
sS'10:53pm'
p1685
I1
sS'dilemma'
p1686
I1
sS'http://t.co/lhrnujaiwi'
p1687
I1
sS'float'
p1688
I2
sS'samee'
p1689
I1
sS'why?'
p1690
I1
sS'why:'
p1691
I1
sS'ahahah'
p1692
I1
sS'wag'
p1693
I2
sS'why.'
p1694
I1
sS'clinical'
p1695
I1
sS'@rgw1994:'
p1696
I1
sS'way'
p1697
I16
sS'wat'
p1698
I1
sS'war'
p1699
I1
sS'#juicecleanse'
p1700
I1
sS'#judbyjulie'
p1701
I1
sS'becoming'
p1702
I2
sS'http://t.co/t82q1enhwk'
p1703
I1
sS'@jacobeeeaaannn'
p1704
I2
sS'amsument'
p1705
I1
sS'@laepicclubcrawl'
p1706
I1
sS'true'
p1707
I8
sS'http://t.co/lgqdxd7rbz'
p1708
I1
sS'@soypaulinagoto:'
p1709
I1
sS'hehe.'
p1710
I1
sS'#london'
p1711
I4
sS'#cosmetology'
p1712
I1
sS'#nwts'
p1713
I1
sS'nandos'
p1714
I1
sS'#tamal'
p1715
I1
sS'@fubarpops'
p1716
I1
sS'http://t.co/7pkhwqjho0'
p1717
I1
sS'#dancerlife'
p1718
I1
sS'http://t.co/mra1ytjdyd'
p1719
I1
sS'dying'
p1720
I4
sS'http://t.co/dzp52kelpg'
p1721
I1
sS'bed.'
p1722
I2
sS'holding'
p1723
I1
sS'http://t.co/2ehw6zavqd'
p1724
I1
sS'test'
p1725
I6
sS'jesus!'
p1726
I1
sS'@trixiebunghole'
p1727
I1
sS'@georgediiorio'
p1728
I1
sS'#audi'
p1729
I4
sS"o'clock"
p1730
I1
sS'#water'
p1731
I1
sS'update'
p1732
I3
sS"let's"
p1733
I2
sS'ours.'
p1734
I1
sS'#gotswag:'
p1735
I1
sS'on-disc'
p1736
I1
sS'cheated'
p1737
I1
sS'together'
p1738
I11
sS'beds'
p1739
I3
sS'dance'
p1740
I2
sS'#beach'
p1741
I20
sS'#trendsetters'
p1742
I2
sS'#finals'
p1743
I1
sS'somthing'
p1744
I1
sS'zone'
p1745
I1
sS'#relax'
p1746
I1
sS'#mula'
p1747
I1
sS'http://t.co/98e8uopbxr'
p1748
I1
sS'brown'
p1749
I3
sS'zhane'
p1750
I1
sS'\xf0\x9f\x8f\xa5'
p1751
I1
sS'brownie'
p1752
I1
sS'vegas'
p1753
I2
sS'http://t.co/62pfsss1gq'
p1754
I2
sS'blast'
p1755
I1
sS'psshhhh'
p1756
I1
sS'brain...#yolo'
p1757
I1
sS'turns'
p1758
I3
sS'gun'
p1759
I1
sS'turnt'
p1760
I3
sS'#wilmde'
p1761
I1
sS'fuuuck'
p1762
I1
sS'guy'
p1763
I5
sS'#cashmoneyhero'
p1764
I1
sS'upper'
p1765
I1
sS'regret'
p1766
I7
sS'#judgeme'
p1767
I1
sS'discover'
p1768
I1
sS'@hattiejords:'
p1769
I2
sS'http://t.co/mbgwltf9vi'
p1770
I1
sS'barbie'
p1771
I1
sS'@mrdaddyt'
p1772
I1
sS'weezy'
p1773
I1
sS'#bro'
p1774
I1
sS'nikah'
p1775
I2
sS'teacher'
p1776
I2
sS'#packingheat'
p1777
I1
sS'sending'
p1778
I1
sS'condoms'
p1779
I1
sS'words...'
p1780
I1
sS'#boy#czech#girl'
p1781
I1
sS'http://t.co/yzwgkxk9c0'
p1782
I1
sS'usually'
p1783
I1
sS'chesterfield'
p1784
I1
sS'@damgood13'
p1785
I2
sS"country's"
p1786
I1
sS'homecoming'
p1787
I1
sS'http://t.co/pspf5gdzar'
p1788
I1
sS'http://t.co/mx31gao7tj'
p1789
I1
sS'#family'
p1790
I1
sS'#befierce'
p1791
I1
sS'@royalsexiness_'
p1792
I1
sS'#humpoftheweek'
p1793
I1
sS'#ashlynnbrooke'
p1794
I1
sS'live'
p1795
I29
sS'#momjeans'
p1796
I1
sS'club'
p1797
I2
sS'http://t.co/9dcsbw21jq'
p1798
I1
sS'clue'
p1799
I1
sS'#thinkingabouthim'
p1800
I1
sS'http://t.co/ilr8i9fspc'
p1801
I1
sS'\xf0\x9f\x98\x96\xe2\x80\x9d'
p1802
I1
sS'heelieing'
p1803
I1
sS'#burrito'
p1804
I1
sS'niggas'
p1805
I5
sS'#cri'
p1806
I1
sS'cat'
p1807
I4
sS'@thatguyfrommt:'
p1808
I1
sS'cab'
p1809
I1
sS'heart'
p1810
I1
sS'december'
p1811
I1
sS'chip'
p1812
I1
sS"didn't"
p1813
I7
sS'heard'
p1814
I1
sS'#exotic'
p1815
I1
sS'@j_davis614'
p1816
I1
sS'clothing'
p1817
I1
sS'#laugh'
p1818
I1
sS'http://t.co/fzvddbrbop\xe2\x80\x9d'
p1819
I1
sS'discussion'
p1820
I1
sS'it!!!!'
p1821
I1
sS'#douchebagpeephole'
p1822
I1
sS'workout!!'
p1823
I1
sS'http://t.co/wuuud9d932'
p1824
I1
sS'product'
p1825
I1
sS'#paradise'
p1826
I2
sS'pestoforce:'
p1827
I1
sS'xxxxpenismaster2014xxxxx'
p1828
I1
sS'http://t.co/fsu8o3tgd1'
p1829
I1
sS'lifting'
p1830
I1
sS'#instafam'
p1831
I1
sS'remember'
p1832
I6
sS'#gno'
p1833
I2
sS'whenever'
p1834
I4
sS'@lorita_mn'
p1835
I2
sS'#ocscott'
p1836
I1
sS'26-15'
p1837
I1
sS'\xf0\x9f\x98\x81\xf0\x9f\x98\x81'
p1838
I1
sS'tagged'
p1839
I1
sS'serving'
p1840
I1
sS'thesismates'
p1841
I1
sS'diplo'
p1842
I1
sS'cold'
p1843
I1
sS'still'
p1844
I22
sS'rooftop'
p1845
I1
sS'acknowledge'
p1846
I1
sS'http://t.co/fupk8kavth'
p1847
I1
sS'@tykims17'
p1848
I1
sS'#photooftheday'
p1849
I2
sS'#easylioneasytiger'
p1850
I1
sS'yama'
p1851
I9
sS'currently.'
p1852
I2
sS'half'
p1853
I4
sS'drop'
p1854
I2
sS'goat'
p1855
I1
sS'birthday.'
p1856
I4
sS'birthday!'
p1857
I1
sS'makaton'
p1858
I1
sS'eh'
p1859
I1
sS'ed'
p1860
I1
sS'sugars'
p1861
I1
sS'yeah'
p1862
I8
sS'wrap'
p1863
I1
sS'shouldnt'
p1864
I2
sS'ey'
p1865
I1
sS'year'
p1866
I9
sS'eu'
p1867
I1
sS'es'
p1868
I2
sS'album'
p1869
I1
sS'opened'
p1870
I1
sS'looking'
p1871
I7
sS'#fee'
p1872
I1
sS'interesting.'
p1873
I2
sS'#passiveincome'
p1874
I1
sS'#yolo:'
p1875
I2
sS'yea.'
p1876
I1
sS'#yolo?'
p1877
I6
sS'#yolo!'
p1878
I3
sS'rly'
p1879
I1
sS'rebel'
p1880
I2
sS'\xf0\x9f\x92\xaf'
p1881
I1
sS'#yolo.'
p1882
I9
sS'card'
p1883
I4
sS'care'
p1884
I1
sS'show.'
p1885
I1
sS'\xf0\x9f\x92\x9c'
p1886
I2
sS'\xe2\x80\x9c@drippin09:'
p1887
I1
sS'\xf0\x9f\x92\x95'
p1888
I1
sS'british'
p1889
I1
sS'honest'
p1890
I1
sS'\xf0\x9f\x92\x8b'
p1891
I1
sS'tangled'
p1892
I1
sS'#day2'
p1893
I1
sS'\xf0\x9f\x92\x81'
p1894
I2
sS'\xf0\x9f\x92\x83'
p1895
I2
sS'adventure'
p1896
I4
sS'blind'
p1897
I5
sS'#turnt'
p1898
I2
sS'#6ampracticetomorrow\xe2\x80\x9d'
p1899
I1
sS'#diasco'
p1900
I1
sS'flipping'
p1901
I1
sS'xd'
p1902
I6
sS'xx'
p1903
I2
sS'impossible'
p1904
I1
sS'ring'
p1905
I1
sS'tomorrow'
p1906
I14
sS'size'
p1907
I6
sS'http://t.co/uupgcbjcmb'
p1908
I1
sS'state...#yolo'
p1909
I1
sS'caught'
p1910
I1
sS'#mydrunkshopping'
p1911
I1
sS'day...#yolo'
p1912
I3
sS'puddle'
p1913
I1
sS'friend'
p1914
I3
sS'pelting'
p1915
I1
sS'rin!'
p1916
I2
sS'appreciated'
p1917
I1
sS'crack'
p1918
I1
sS'karate'
p1919
I1
sS'fruits'
p1920
I1
sS'hairline'
p1921
I2
sS'#notimefordrama'
p1922
I1
sS'investors'
p1923
I2
sS'#solo'
p1924
I1
sS'slap'
p1925
I2
sS'13th'
p1926
I1
sS'\xf0\x9f\x98\x9c\xf0\x9f\x98\x8e\xf0\x9f\x91\x8c\xe2\x9c\x8c\xf0\x9f\x92\x9b\xf0\x9f\x92\x99\xf0\x9f\x92\x9c\xf0\x9f\x92\x9a\xe2\x9d\xa4'
p1927
I1
sS'anger'
p1928
I1
sS'breakfast'
p1929
I3
sS'#open'
p1930
I1
sS'inked'
p1931
I1
sS'mr.'
p1932
I1
sS'online'
p1933
I3
sS'@superbeii'
p1934
I1
sS'price'
p1935
I1
sS'http://t.co/ys6ojkfynf'
p1936
I2
sS'#september'
p1937
I2
sS'america'
p1938
I1
sS'forever'
p1939
I3
sS'sprinting'
p1940
I2
sS'mrs'
p1941
I1
sS'noodies...'
p1942
I1
sS'#presley'
p1943
I1
sS'#teamfree'
p1944
I1
sS'ground'
p1945
I2
sS'upgrade'
p1946
I1
sS'#tris'
p1947
I1
sS'_jovinus_'
p1948
I1
sS'\xf0\x9f\x91\x8c#yolo'
p1949
I3
sS'http://t.co/ruqaqmvaiy'
p1950
I1
sS'fighter...#yolo'
p1951
I1
sS'http://t.co/muc7fhyq9j'
p1952
I1
sS'#getinmybelly'
p1953
I1
sS'cannot'
p1954
I2
sS'rape.'
p1955
I1
sS'https://t.co/ry41chnspe'
p1956
I1
sS'#pandas'
p1957
I1
sS'@gottobeomar:'
p1958
I1
sS'breeches'
p1959
I1
sS'truuuuuuue.'
p1960
I1
sS'concert'
p1961
I1
sS'asleep'
p1962
I5
sS'sport'
p1963
I1
sS'@sav_kuntz'
p1964
I1
sS'hall?'
p1965
I1
sS'westbound'
p1966
I1
sS'beezin'
p1967
I1
sS'http://t.co/a97jlh6sfb'
p1968
I1
sS'hair...#yolo'
p1969
I3
sS'@ayeesha83:'
p1970
I1
sS'#qq'
p1971
I1
sS'jt!'
p1972
I1
sS'comes'
p1973
I11
sS'#quotes'
p1974
I1
sS'#tittytuesday'
p1975
I1
sS'#freshman15'
p1976
I2
sS"couldn't"
p1977
I3
sS'#quote'
p1978
I5
sS'#camopants'
p1979
I1
sS'#twerk'
p1980
I1
sS'skew'
p1981
I1
sS'dictator'
p1982
I1
sS'#eightdays'
p1983
I1
sS'sesh'
p1984
I1
sS"jordan's"
p1985
I1
sS'http://t.co/psignc6km4'
p1986
I1
sS'care?'
p1987
I1
sS'handicapped'
p1988
I2
sS'care.'
p1989
I1
sS"person's"
p1990
I1
sS'#valevergalavida'
p1991
I1
sS'@randy_leee'
p1992
I1
sS'http://t.co/wehfq63zfb'
p1993
I1
sS'favorite.'
p1994
I2
sS'heels'
p1995
I1
sS'return'
p1996
I1
sS'#vivirelmomento\xe2\x80\xa6'
p1997
I1
sS'@callmerxph'
p1998
I1
sS'food'
p1999
I4
sS'followers'
p2000
I3
sS'#liverpool'
p2001
I1
sS'#pussywagon'
p2002
I1
sS'favorited'
p2003
I2
sS'finish'
p2004
I2
sS'#ichbinsotoll'
p2005
I1
sS'fruit'
p2006
I1
sS'@ryanstegman'
p2007
I1
sS'#socialmedia'
p2008
I1
sS'\xe2\x9c\x8c\xef\xb8\x8f'
p2009
I1
sS'sleepiiinnn!'
p2010
I1
sS'&amp;^$+*'
p2011
I1
sS'breezy'
p2012
I1
sS'ccf'
p2013
I1
sS'#cute\xe2\x80\xa6'
p2014
I1
sS'@lupstaplease'
p2015
I1
sS'neon'
p2016
I1
sS'twitch!'
p2017
I1
sS'touch'
p2018
I3
sS'actually!'
p2019
I1
sS'#dreambig'
p2020
I2
sS'euros'
p2021
I1
sS'thinking'
p2022
I2
sS'http://t.co/yg2kj6xykw'
p2023
I1
sS'#javier'
p2024
I1
sS'9:30'
p2025
I2
sS'hospital...#yolo'
p2026
I1
sS'real'
p2027
I6
sS'#noragrets\xe2\x80\x9d'
p2028
I2
sS'read'
p2029
I2
sS'digital'
p2030
I1
sS'#ever'
p2031
I1
sS'early'
p2032
I5
sS'lads'
p2033
I1
sS'using'
p2034
I17
sS'#weed'
p2035
I1
sS'#museodecera'
p2036
I17
sS'miracle'
p2037
I1
sS'@ipautaorg'
p2038
I7
sS'benefit'
p2039
I1
sS'fully'
p2040
I1
sS'@smoshanthony'
p2041
I1
sS'verbal'
p2042
I1
sS'phone...#yolo'
p2043
I2
sS'#gottagetthechicks'
p2044
I1
sS'#ways'
p2045
I1
sS'http://t.co/ux0dv5pazm'
p2046
I1
sS'@cancerbombing:'
p2047
I48
sS'#nailedit'
p2048
I1
sS'business'
p2049
I1
sS'#atleti'
p2050
I1
sS'sixth'
p2051
I1
sS'#shotsapp'
p2052
I1
sS'raul'
p2053
I1
sS'#t\xc3\xa4ielik'
p2054
I1
sS'all--'
p2055
I1
sS'#weallmakemistakes'
p2056
I1
sS'fork.'
p2057
I1
sS'#onlysenior'
p2058
I1
sS'researching'
p2059
I1
sS'2nite'
p2060
I2
sS'@real_osiris'
p2061
I1
sS'snapchat'
p2062
I1
sS'elementary'
p2063
I4
sS'@busty_gal_92'
p2064
I1
sS'http://t.co/j2pl9d0nbg'
p2065
I1
sS'area'
p2066
I2
sS'lol'
p2067
I28
sS'start'
p2068
I3
sS'low'
p2069
I3
sS'stars'
p2070
I1
sS'#blah'
p2071
I3
sS'coolin'
p2072
I1
sS'you.'
p2073
I1
sS'you?'
p2074
I1
sS'#maryjane'
p2075
I1
sS'#lame'
p2076
I1
sS'trying'
p2077
I8
sS'#doeswhatshewants'
p2078
I1
sS'#meme'
p2079
I1
sS'bucket'
p2080
I4
sS'#basic'
p2081
I1
sS'c+'
p2082
I1
sS'moved'
p2083
I1
sS'suite?'
p2084
I1
sS'60%'
p2085
I1
sS'#bareface\xe2\x80\xa6'
p2086
I1
sS'#sixx'
p2087
I1
sS'moves'
p2088
I1
sS'details?'
p2089
I1
sS'@nashgrier:'
p2090
I14
sS'@samshoats'
p2091
I2
sS'everywhere.'
p2092
I1
sS'poop'
p2093
I5
sS'charizard'
p2094
I2
sS'http://t.co/fhlunkuccb'
p2095
I1
sS'pool'
p2096
I1
sS'@dbuprobz'
p2097
I1
sS'building'
p2098
I1
sS'#girls'
p2099
I1
sS'#girly'
p2100
I20
sS'milk...#yolo'
p2101
I1
sS'@samanthalw99:'
p2102
I1
sS'monte'
p2103
I1
sS'#ios8'
p2104
I2
sS'queso.'
p2105
I1
sS'http://t.co/okuaj38w4x'
p2106
I1
sS'messy'
p2107
I1
sS'revoke'
p2108
I2
sS'carpet'
p2109
I1
sS'-i'
p2110
I2
sS"'out'"
p2111
I1
sS'baddies'
p2112
I1
sS'#ballsohard'
p2113
I1
sS'http://t.co/x49swp8kjr'
p2114
I1
sS'selfies'
p2115
I2
sS'tomorrow.'
p2116
I2
sS'pinecones'
p2117
I1
sS'heaven'
p2118
I2
sS'--'
p2119
I2
sS'http://t.co/mvrb66xwvm'
p2120
I1
sS'rto.'
p2121
I2
sS"i'll"
p2122
I5
sS'cookies'
p2123
I1
sS'approximately'
p2124
I1
sS'with....'
p2125
I1
sS'track.'
p2126
I1
sS'#youngwildandfree'
p2127
I1
sS'#food4thought'
p2128
I1
sS'miami!'
p2129
I1
sS'witnessed'
p2130
I1
sS'investing'
p2131
I1
sS'#hotyoga'
p2132
I1
sS'hahaha'
p2133
I2
sS'pub'
p2134
I2
sS'strong'
p2135
I3
sS'creeps'
p2136
I1
sS'ahead'
p2137
I1
sS'thursday'
p2138
I3
sS'creepy'
p2139
I1
sS'goatee..'
p2140
I1
sS'amount'
p2141
I1
sS'arent'
p2142
I1
sS'*forever'
p2143
I1
sS'family'
p2144
I1
sS'eternal.'
p2145
I1
sS'ask'
p2146
I3
sS"#mcdonald'sworkers"
p2147
I1
sS'#pimpin'
p2148
I1
sS'mysterious'
p2149
I1
sS"'swim"
p2150
I1
sS'#yougotaproblem'
p2151
I1
sS'#s1'
p2152
I4
sS'#causeican'
p2153
I1
sS'excuse'
p2154
I1
sS'broke'
p2155
I1
sS'@wonggggggg'
p2156
I1
sS'#wednesday\xe2\x80\xa6'
p2157
I1
sS'#se'
p2158
I1
sS'#sg'
p2159
I1
sS'#tanecnik'
p2160
I1
sS'spontaneous'
p2161
I1
sS'8.15.'
p2162
I1
sS'bffs'
p2163
I1
sS'it!!!!!!'
p2164
I1
sS'#romantic'
p2165
I1
sS'#watches'
p2166
I2
sS'@kimnguyeen'
p2167
I1
sS'#lifestyle'
p2168
I1
sS'tried'
p2169
I1
sS'@tabulaa_:'
p2170
I3
sS'sneak'
p2171
I1
sS'fb'
p2172
I1
sS'good...#yolo'
p2173
I1
sS'horizontal'
p2174
I1
sS'fl'
p2175
I1
sS'fo'
p2176
I1
sS'doritos'
p2177
I1
sS'overnight'
p2178
I1
sS'dreads...#yolo'
p2179
I1
sS'#poolparty'
p2180
I1
sS'help'
p2181
I3
sS'\xf0\x9f\x99\x8b\xf0\x9f\x99\x8b'
p2182
I1
sS'sooo'
p2183
I1
sS'soon'
p2184
I2
sS'lasers'
p2185
I1
sS'hell'
p2186
I2
sS'mcdonalds'
p2187
I3
sS'talking'
p2188
I2
sS'actually'
p2189
I3
sS'#lovedit'
p2190
I1
sS'peanuts'
p2191
I1
sS"haven't"
p2192
I14
sS'yh'
p2193
I2
sS'evening'
p2194
I2
sS'yo'
p2195
I4
sS'ya'
p2196
I3
sS'cup...#yolo'
p2197
I2
sS'http://t.co/b4vz2pqbpr'
p2198
I1
sS'http://t.co/e6bc01xvbg'
p2199
I1
sS'peeing'
p2200
I3
sS'starbucks'
p2201
I1
sS'http://t.co/6wnyet7t74'
p2202
I2
sS'ninja'
p2203
I1
sS'yr'
p2204
I1
sS'#nice'
p2205
I1
sS'http://t.co/fsdvst2c89'
p2206
I1
sS'#booze'
p2207
I1
sS'stopped'
p2208
I2
sS'#livingstrong'
p2209
I1
sS"isn't"
p2210
I3
sS'#leagueoflegends'
p2211
I1
sS'event'
p2212
I1
sS'#performing\xe2\x80\xa6'
p2213
I1
sS'since'
p2214
I5
sS'#ironbrew2'
p2215
I1
sS'ass'
p2216
I4
sS'drink'
p2217
I1
sS'draw..$1'
p2218
I1
sS'upon'
p2219
I4
sS'#india'
p2220
I3
sS'reason'
p2221
I2
sS'put'
p2222
I7
sS'win!!'
p2223
I1
sS'lachene'
p2224
I1
sS'#snuggles'
p2225
I1
sS'american'
p2226
I2
sS'something...#yolo'
p2227
I1
sS'dear.'
p2228
I3
sS'@gizmodo:'
p2229
I1
sS'http://t.co/nljkq1hgkq'
p2230
I1
sS'fucked'
p2231
I4
sS'taggar'
p2232
I1
sS'miss'
p2233
I6
sS'horse'
p2234
I2
sS'@troyhcampbell'
p2235
I1
sS'st.'
p2236
I2
sS'banana'
p2237
I4
sS"outlook's"
p2238
I1
sS'selling'
p2239
I2
sS'zibala'
p2240
I1
sS'#argentina'
p2241
I1
sS'translation'
p2242
I1
sS'dances...#yolo'
p2243
I2
sS'grocery'
p2244
I1
sS"morning's"
p2245
I1
sS'http://t.co/awi0ekwm1x'
p2246
I1
sS'#yehni'
p2247
I1
sS'@mariannallanes'
p2248
I1
sS'store'
p2249
I3
sS'kindle'
p2250
I1
sS'toward'
p2251
I1
sS'#drhopping'
p2252
I1
sS'wasnt'
p2253
I1
sS'@foreverjomarch:'
p2254
I1
sS'#unplannedchildprobz'
p2255
I1
sS'#fam'
p2256
I5
sS'futurists'
p2257
I1
sS'#henny'
p2258
I1
sS'tomorrow...'
p2259
I1
sS'concentration'
p2260
I2
sS'lil'
p2261
I1
sS'http://t.co/rmhvomkpdt'
p2262
I1
sS'lip'
p2263
I1
sS'@jessicarubioo'
p2264
I5
sS'#sbspopasiasuperjunior'
p2265
I1
sS'towards'
p2266
I3
sS'hires'
p2267
I1
sS'#bdlyf'
p2268
I1
sS'#food'
p2269
I1
sS'http://t.co/7dbfggvemb'
p2270
I1
sS'http://t.co/rnnvkhg7bo'
p2271
I1
sS'http://t.co/i4rxax2lsh'
p2272
I1
sS'#enjoyinglife'
p2273
I1
sS'clean'
p2274
I1
sS'@carpentervibess'
p2275
I1
sS'usual'
p2276
I1
sS'shoutout'
p2277
I2
sS'stalked'
p2278
I10
sS'hyper'
p2279
I1
sS'#blackonblack\xe2\x80\xa6'
p2280
I1
sS'\xf0\x9f\x98\x84\xf0\x9f\x98\x84'
p2281
I1
sS'#yay'
p2282
I1
sS'@kayladyson99:'
p2283
I1
sS'crayon'
p2284
I2
sS'bought...#yolo'
p2285
I1
sS'with.'
p2286
I1
sS'@ellewallis:'
p2287
I1
sS'pretty'
p2288
I6
sS'circle'
p2289
I2
sS'http://t.co/bf6smrkgzn'
p2290
I1
sS'woodall'
p2291
I1
sS'feels'
p2292
I3
sS'pretending'
p2293
I1
sS'international'
p2294
I1
sS'jazzhands'
p2295
I1
sS'gift...#yolo'
p2296
I1
sS'griffithpark'
p2297
I1
sS'perfume'
p2298
I1
sS'double'
p2299
I1
sS'@jacktheladoooh:'
p2300
I1
sS'throwing'
p2301
I6
sS'grey'
p2302
I2
sS'#pezon'
p2303
I1
sS'embarking'
p2304
I1
sS'pictures'
p2305
I3
sS'woo'
p2306
I1
sS'won'
p2307
I2
sS'sharings'
p2308
I1
sS'probably'
p2309
I5
sS'#swag'
p2310
I58
sS'piss'
p2311
I3
sS'missing'
p2312
I1
sS'@samweiser1'
p2313
I1
sS'#thisischina'
p2314
I1
sS'game....#yolo'
p2315
I1
sS'league'
p2316
I1
sS'#taco'
p2317
I1
sS"wouldn't"
p2318
I4
sS'year\xf0\x9f\x91\x8c'
p2319
I1
sS'tahyang'
p2320
I1
sS'#solobackpacker'
p2321
I1
sS'large-scale'
p2322
I1
sS'live.'
p2323
I2
sS'whatever'
p2324
I23
sS'header'
p2325
I1
sS'badminton'
p2326
I1
sS'laughin'
p2327
I2
sS'zee-hayne.'
p2328
I1
sS'loggin'
p2329
I2
sS'3.3k'
p2330
I1
sS'#firsttime'
p2331
I1
sS'http://t.co/9dbazyp9j5'
p2332
I1
sS'damn'
p2333
I3
sS'#expecttheunexpected'
p2334
I48
sS'here:'
p2335
I2
sS'@fiverr_dsc:'
p2336
I1
sS'juicy'
p2337
I1
sS'#homo'
p2338
I1
sS'cantar'
p2339
I1
sS'look'
p2340
I14
sS'juice'
p2341
I1
sS'#instagood'
p2342
I1
sS'http://t.co/kanbucxxxr'
p2343
I1
sS'http://t.co/z5yljz4nqd'
p2344
I1
sS'nap.'
p2345
I1
sS'http://t.co/fv4xcxyzvl'
p2346
I1
sS'embroidered'
p2347
I9
sS'skype'
p2348
I1
sS'ready'
p2349
I4
sS'1000.'
p2350
I1
sS'bluewater'
p2351
I1
sS'hill...#yolo'
p2352
I1
sS'#halloweennight'
p2353
I1
sS'http://t.co/y2mvaruj1i'
p2354
I1
sS'grand'
p2355
I2
sS'going...'
p2356
I1
sS'hallway'
p2357
I1
sS'used'
p2358
I2
sS'classmates'
p2359
I1
sS'@_nikkiie_'
p2360
I1
sS'http://t.co/xjccyd3x8l'
p2361
I1
sS'#amazing'
p2362
I1
sS'palumba'
p2363
I1
sS'cleaning'
p2364
I1
sS'k\xe2\x80\xa6'
p2365
I1
sS'#trololol'
p2366
I1
sS'older'
p2367
I1
sS'(d-ia):'
p2368
I2
sS'obviously'
p2369
I1
sS'five'
p2370
I2
sS'#uk'
p2371
I2
sS'\xf0\x9f\x91\x8d\xf0\x9f\x91\xaf\xf0\x9f\x91\xad\xe2\x80\xa6'
p2372
I1
sS'reviewed'
p2373
I1
sS'@isaiah_smith28'
p2374
I1
sS'#yolo\xf0\x9f\x92\xaf'
p2375
I1
sS'@mixtapekeys'
p2376
I1
sS'window.'
p2377
I1
sS'...'
p2378
I2
sS'marco'
p2379
I1
sS'motivating'
p2380
I1
sS'judgment?'
p2381
I1
sS'#itsmybirthday'
p2382
I1
sS'game'
p2383
I5
sS'#ugly'
p2384
I1
sS'intoxication.'
p2385
I1
sS'oncoming'
p2386
I1
sS'library...#yolo'
p2387
I1
sS'yolo'
p2388
I14
sS'lips'
p2389
I3
sS'\xe2\x80\x9c@overslept_:'
p2390
I1
sS'trendy'
p2391
I1
sS'id?'
p2392
I1
sS'http://t.co/mua4hml1yu'
p2393
I1
sS'santacruz'
p2394
I1
sS'#letsgocrazy'
p2395
I1
sS'run'
p2396
I8
sS'http://t.co/wxxqktebbb'
p2397
I1
sS'@frankieadeux'
p2398
I1
sS'nelly'
p2399
I1
sS'#noteven420'
p2400
I1
sS'wouldnt'
p2401
I1
sS'@aveeerylynnn1'
p2402
I1
sS'idk'
p2403
I1
sS'@1lewisbee'
p2404
I1
sS'@xosfoisy'
p2405
I1
sS'rave.'
p2406
I3
sS'angry'
p2407
I2
sS'silence'
p2408
I1
sS'pero'
p2409
I2
sS'http://t.co/5m6yzhapql'
p2410
I1
sS'within'
p2411
I2
sS'@kristielallen:'
p2412
I1
sS'..'
p2413
I3
sS'http://t.co/ikkgwt1fco'
p2414
I1
sS'reduction'
p2415
I1
sS'was..#yolo'
p2416
I1
sS'footage'
p2417
I1
sS'#granny'
p2418
I1
sS'roll!'
p2419
I1
sS'larry'
p2420
I1
sS'reed'
p2421
I1
sS'reel'
p2422
I1
sS'http://t.co/brebeikfug'
p2423
I1
sS'visa!'
p2424
I1
sS'thru'
p2425
I1
sS'http://t.co/y8tpwpvbj4'
p2426
I1
sS'lyfe!'
p2427
I1
sS'#fool...'
p2428
I1
sS'livetweeting'
p2429
I1
sS'#yort'
p2430
I1
sS'uber'
p2431
I1
sS'ordered'
p2432
I1
sS'\xf0\x9f\x92\x91\xf0\x9f\x92\x91\xf0\x9f\x92\x91\xf0\x9f\x92\x91\xf0\x9f\x92\x8f\xf0\x9f\x92\x8f\xf0\x9f\x92\x8f\xf0\x9f\x92\x8f\xf0\x9f\x92\x8f\xf0\x9f\x92\x8f\xf0\x9f\x92\x8f\xf0\x9f\x92\x8f\xf0\x9f\x92\x8f\xf0\x9f\x92\x8f'
p2433
I1
sS'eva.'
p2434
I1
sS'nap'
p2435
I1
sS'dept.'
p2436
I1
sS'event.'
p2437
I1
sS'manhattan'
p2438
I1
sS'draw'
p2439
I2
sS'grandmother...#yolo'
p2440
I1
sS'http://t.co/lkkr3lrsuy'
p2441
I1
sS'adult.'
p2442
I1
sS'heroine'
p2443
I1
sS'#young'
p2444
I1
sS'gum\xf0\x9f\x99\x8a'
p2445
I1
sS'youtube'
p2446
I3
sS'#tea'
p2447
I1
sS'lying'
p2448
I1
sS'#beautybeforebooty'
p2449
I1
sS"she's"
p2450
I1
sS'.@cesarmora_a5!'
p2451
I1
sS'giggles'
p2452
I1
sS'pearce'
p2453
I4
sS'go'
p2454
I51
sS'psycho'
p2455
I1
sS"'have"
p2456
I1
sS'kate'
p2457
I1
sS'#roco'
p2458
I1
sS'assignment!'
p2459
I1
sS'#rock'
p2460
I1
sS'http://t.co/fvzonpyih6'
p2461
I1
sS'#fomo'
p2462
I3
sS'nose'
p2463
I3
sS'#sister'
p2464
I1
sS'friendly'
p2465
I1
sS'#usair'
p2466
I1
sS'wave'
p2467
I1
sS'facebook'
p2468
I1
sS'more!'
p2469
I1
sS'telling'
p2470
I5
sS'feel.'
p2471
I1
sS'wkds'
p2472
I1
sS'#messes\xe2\x80\x9d'
p2473
I1
sS'button'
p2474
I1
sS'michael'
p2475
I3
sS'#yolo$wag'
p2476
I1
sS'booty'
p2477
I2
sS'@danetyson4'
p2478
I2
sS'boots'
p2479
I1
sS'waking'
p2480
I1
sS'jump'
p2481
I2
sS'download'
p2482
I2
sS'click'
p2483
I2
sS'poke'
p2484
I1
sS'#damingtime'
p2485
I1
sS'#sfeteam'
p2486
I1
sS'cell'
p2487
I2
sS'#subtweet'
p2488
I2
sS"deanne's"
p2489
I1
sS'twitter!'
p2490
I1
sS'lmmfao!!!!'
p2491
I2
sS'\xf0\x9f\x91\x91\xf0\x9f\x92\xaa'
p2492
I2
sS'myself...'
p2493
I1
sS'@tracedotface'
p2494
I2
sS'products'
p2495
I1
sS"weren't"
p2496
I1
sS'singing'
p2497
I1
sS'#jenda'
p2498
I1
sS'#ohno'
p2499
I1
sS'camera'
p2500
I3
sS'cheeky'
p2501
I1
sS'crab'
p2502
I2
sS'cram'
p2503
I1
sS'stage'
p2504
I1
sS'http://t.co/n2mojstnhv'
p2505
I1
sS'winston'
p2506
I1
sS'started'
p2507
I3
sS'#instagood...'
p2508
I1
sS'ride'
p2509
I2
sS'meet'
p2510
I4
sS'#selfiefacemask'
p2511
I1
sS'control'
p2512
I1
sS'http://t.co/1mrr4qo42v'
p2513
I1
sS'kenny'
p2514
I1
sS'halloween'
p2515
I2
sS'up!!!!'
p2516
I1
sS'dormida\xe2\x80\xa6'
p2517
I1
sS'braless'
p2518
I1
sS'#exam1'
p2519
I1
sS'#studyingkindapaysoff'
p2520
I1
sS'campus\xe2\x80\xa6'
p2521
I1
sS'narnia!'
p2522
I1
sS'4s:'
p2523
I1
sS'goodlifebullys'
p2524
I1
sS'@abigailbarnes96:'
p2525
I1
sS'link:'
p2526
I1
sS'ronald'
p2527
I1
sS'spelling'
p2528
I1
sS'sooooo...'
p2529
I1
sS'splurging'
p2530
I1
sS'ibiza'
p2531
I1
sS'#hipster'
p2532
I1
sS'advocates'
p2533
I1
sS'agenda'
p2534
I1
sS'bakers'
p2535
I1
sS'jail.'
p2536
I1
sS'bathing'
p2537
I1
sS'muthafukkas'
p2538
I1
sS'http://t.co/wdggwsdtnt'
p2539
I1
sS'#newphonenextweek'
p2540
I1
sS"won't"
p2541
I2
sS'#girl'
p2542
I21
sS'\xf0\x9f\x98\x98\xf0\x9f\x98\x98#yolo'
p2543
I1
sS'#boredom..!!#umaambisyon'
p2544
I1
sS'#cash'
p2545
I1
sS'front'
p2546
I2
sS'\xf0\x9f\x98\x90\xe2\x9c\x8c\xef\xb8\x8f'
p2547
I1
sS'@jhorton24'
p2548
I1
sS'university'
p2549
I2
sS'http://t.co/gfp39tujvw'
p2550
I1
sS'mode'
p2551
I1
sS'#heartface'
p2552
I1
sS'showering'
p2553
I2
sS'drizzy'
p2554
I2
sS'mas'
p2555
I1
sS'#notreally'
p2556
I1
sS'syrup...#yolo'
p2557
I1
sS'explores'
p2558
I1
sS'@theunknownb0y:'
p2559
I1
sS'special'
p2560
I1
sS'#smile'
p2561
I4
sS'http://t.co/bbt0aak4pn'
p2562
I1
sS'#independentwoman'
p2563
I1
sS'&gt;&gt;'
p2564
I2
sS'time.'
p2565
I1
sS'@serenah101'
p2566
I1
sS'cause'
p2567
I13
sS'achievements'
p2568
I1
sS'umbrella'
p2569
I1
sS'attending'
p2570
I1
sS'completely'
p2571
I2
sS'http://t.co/dllsuscmmi'
p2572
I1
sS'clothes...#yolo'
p2573
I2
sS'#toad'
p2574
I2
sS'#subscribe'
p2575
I1
sS'#experiment'
p2576
I1
sS'times'
p2577
I5
sS'austin'
p2578
I1
sS'lint...#yolo'
p2579
I1
sS'@neo_ta_twitch'
p2580
I1
sS'#lifegoal'
p2581
I3
sS'list:'
p2582
I1
sS'list.'
p2583
I1
sS'bitch'
p2584
I2
sS'mah'
p2585
I1
sS'hehe'
p2586
I1
sS"you're"
p2587
I8
sS'http://t.co/e0vpijjhbp'
p2588
I1
sS'http://t.co/\xe2\x80\xa6'
p2589
I2
sS'final'
p2590
I1
sS'#kustin2014'
p2591
I1
sS'exactly'
p2592
I1
sS'potatoes...#yolo'
p2593
I1
sS'ben'
p2594
I3
sS'#wow'
p2595
I1
sS'bed'
p2596
I13
sS'@mikegenemose'
p2597
I1
sS'bare'
p2598
I1
sS'bet'
p2599
I3
sS'carrots'
p2600
I1
sS'#youcrazylikeme'
p2601
I1
sS'need'
p2602
I5
sS'ok\xe2\x80\x9dbuy'
p2603
I1
sS'http://t.co/mvk4voics1'
p2604
I1
sS'http://t.co/dapcxlxd5v'
p2605
I1
sS'#follow4follow\xe2\x80\xa6'
p2606
I1
sS'lectures'
p2607
I1
sS'sewing'
p2608
I1
sS'zoo...#yolo'
p2609
I1
sS'hiphop'
p2610
I1
sS'#itstuesday'
p2611
I2
sS'awh'
p2612
I1
sS'sing?'
p2613
I1
sS'http://t.co/08nzhzcedl'
p2614
I1
sS'#yolo'
p2615
I1306
sS'#thankyougod'
p2616
I1
sS'@harry_styles'
p2617
I1
sS'http://t.co/3jairoszgc'
p2618
I1
sS'indoor'
p2619
I1
sS'#success'
p2620
I1
sS'anyway'
p2621
I4
sS'@krispykreme'
p2622
I2
sS'parked'
p2623
I1
sS'http://t.co/zrwrsmtvvv'
p2624
I1
sS'based'
p2625
I1
sS'earned'
p2626
I2
sS'http://t.co/1zblv2zdeq'
p2627
I1
sS'#yoloswag'
p2628
I5
sS'achieve'
p2629
I1
sS'sassy'
p2630
I1
sS'tbe'
p2631
I1
sS'#bacon'
p2632
I1
sS'shy'
p2633
I1
sS"somebody's"
p2634
I1
sS'#instashare\xe2\x80\xa6'
p2635
I1
sS'computer'
p2636
I1
sS'powder'
p2637
I1
sS'#yoloing'
p2638
I1
sS'#pot'
p2639
I4
sS'study.'
p2640
I1
sS'luv'
p2641
I4
sS'klopp'
p2642
I1
sS'#wildchild'
p2643
I1
sS'written'
p2644
I1
sS'#seniorz'
p2645
I1
sS'#fallfashion'
p2646
I1
sS'@lulublom'
p2647
I1
sS'minutes'
p2648
I4
sS'@nicolejade96'
p2649
I1
sS'admit'
p2650
I1
sS'jersey'
p2651
I2
sS'qfc'
p2652
I1
sS'studying.'
p2653
I1
sS'tips...#yolo'
p2654
I1
sS'tuesday'
p2655
I3
sS'http://t.co/ukwg7a0ddi'
p2656
I3
sS'together!'
p2657
I1
sS'poem'
p2658
I1
sS'yay'
p2659
I1
sS'@shotbysodium'
p2660
I1
sS'@smayberryscott'
p2661
I1
sS'@ephemeralrift'
p2662
I1
sS'quiz'
p2663
I2
sS'slowly'
p2664
I2
sS'treat'
p2665
I2
sS'days!'
p2666
I1
sS'#idgaf'
p2667
I3
sS'@jaguarhai'
p2668
I1
sS'#tripleplay'
p2669
I1
sS'#autumniscomming'
p2670
I1
sS'@robbie_cort:'
p2671
I1
sS'harder'
p2672
I1
sS'@vazirishoreh'
p2673
I1
sS"'66"
p2674
I1
sS'wooohooo'
p2675
I1
sS'resident'
p2676
I1
sS'http://t.co/j02sts3szr'
p2677
I1
sS'bucks'
p2678
I1
sS'#bae'
p2679
I3
sS'parts'
p2680
I1
sS'speaker'
p2681
I1
sS'dickens'
p2682
I1
sS'party'
p2683
I10
sS'@tootches:'
p2684
I1
sS'#denver'
p2685
I2
sS'spree'
p2686
I1
sS'#deep'
p2687
I2
sS'#thisishowwedo'
p2688
I1
sS'well'
p2689
I16
sS'naked!'
p2690
I1
sS'#tram'
p2691
I1
sS'sloth'
p2692
I1
sS'http://t.co/gqoxzmbjj5'
p2693
I5
sS'@ghostbusters30'
p2694
I2
sS'#nosugardaddy'
p2695
I1
sS'#ritmonervoso'
p2696
I1
sS'kick'
p2697
I1
sS'#apple'
p2698
I1
sS'suziphipps'
p2699
I1
sS'#mindfulness'
p2700
I1
sS'@summerbob_10:'
p2701
I1
sS'#voldy'
p2702
I2
sS'lincoln'
p2703
I1
sS'lost'
p2704
I5
sS'looooooools'
p2705
I1
sS'spots.'
p2706
I2
sS'\xe2\x80\x9c@leecharles_:'
p2707
I2
sS'taping'
p2708
I3
sS'\xe2\x80\x9c@ltsbulbasaur:'
p2709
I4
sS'#sucess'
p2710
I4
sS'#indyref'
p2711
I1
sS'@meowmiskers'
p2712
I1
sS'#3ds'
p2713
I1
sS'twitter'
p2714
I17
sS'freshy'
p2715
I1
sS'#teambennyto'
p2716
I1
sS"'you"
p2717
I1
sS'home'
p2718
I11
sS'before.'
p2719
I1
sS'steaming'
p2720
I2
sS'habits.'
p2721
I1
sS'http://t.co/8refrhmcxf'
p2722
I1
sS'turds'
p2723
I1
sS'....and'
p2724
I1
sS'http://t.co/zwldb1ko9a'
p2725
I1
sS'balloons...#yolo'
p2726
I1
sS'@littlebohspeep'
p2727
I1
sS'goal!'
p2728
I2
sS'\xf0\x9f\x98\x82\xf0\x9f\x91\x8c\xf0\x9f\x91\x8c'
p2729
I1
sS'washington'
p2730
I1
sS'due'
p2731
I5
sS'#suicidesilence'
p2732
I1
sS'#yummy'
p2733
I1
sS'lives!'
p2734
I1
sS'museum'
p2735
I1
sS'@tank17autoz'
p2736
I1
sS'scotland!!!'
p2737
I1
sS'addictive??!'
p2738
I1
sS'cricket'
p2739
I1
sS'hw'
p2740
I1
sS'\xe2\x80\x9c@swainey5:'
p2741
I1
sS'hi'
p2742
I2
sS'@ephemeralrift:'
p2743
I1
sS'hc'
p2744
I2
sS'friends.'
p2745
I1
sS'eat'
p2746
I7
sS'#wannaseeyousoon'
p2747
I1
sS'hosting'
p2748
I2
sS'#1sttattoo'
p2749
I1
sS'\xe2\x80\x99'
p2750
I1
sS'#chibakas'
p2751
I2
sS'stories'
p2752
I3
sS'@ukbanter'
p2753
I1
sS'\xf0\x9f\x98\x82\xf0\x9f\x91\x8d'
p2754
I2
sS'\xf0\x9f\x98\x82\xf0\x9f\x91\x8c'
p2755
I1
sS'hats!'
p2756
I1
sS'poopin'
p2757
I1
sS'@ryanvallyd'
p2758
I2
sS'http://t.co/tt0sgyz7jc'
p2759
I1
sS'packs'
p2760
I1
sS'@tomcarnegie_'
p2761
I1
sS'talkin'
p2762
I1
sS'febreeze'
p2763
I1
sS'http://t.co/yzhhgjki9n'
p2764
I1
sS'stay'
p2765
I13
sS'else'
p2766
I2
sS'friends'
p2767
I6
sS'@jpwitness'
p2768
I1
sS'coat'
p2769
I1
sS'3rd'
p2770
I1
sS'#thebestoftheday\xe2\x80\xa6'
p2771
I1
sS'@cabezas'
p2772
I1
sS'@beaaaaachanny:'
p2773
I1
sS'frankfurt'
p2774
I1
sS'yesh!!'
p2775
I1
sS'#thankyoutomyhairstylist'
p2776
I1
sS'6pm'
p2777
I1
sS'better?'
p2778
I1
sS'update:'
p2779
I1
sS'http://t.co/ryxrqkvzev'
p2780
I2
sS'up.'
p2781
I6
sS'swag'
p2782
I5
sS'buddy'
p2783
I2
sS'@gabberrooo:'
p2784
I1
sS'#kennyrogersroaster'
p2785
I1
sS'swap'
p2786
I1
sS'\xf0\x9f\x92\xaf\xe2\x80\x9dmise'
p2787
I2
sS'teaching'
p2788
I3
sS'sorry'
p2789
I5
sS'today?'
p2790
I1
sS'today!'
p2791
I2
sS'today.'
p2792
I12
sS'#loveyou'
p2793
I2
sS'denver!'
p2794
I1
sS'#suicidebombing'
p2795
I48
sS'#banter'
p2796
I3
sS'http://t.co/wyl1vvudcu'
p2797
I1
sS'@martiniwines:'
p2798
I1
sS'ups'
p2799
I2
sS'clothes'
p2800
I5
sS'me!'
p2801
I1
sS'me.'
p2802
I1
sS'likely'
p2803
I1
sS'even'
p2804
I27
sS'nek'
p2805
I1
sS'#gamergate'
p2806
I1
sS'hate'
p2807
I1
sS'girlfriend...#yolo'
p2808
I1
sS'new'
p2809
I16
sS'ever'
p2810
I6
sS'meg'
p2811
I1
sS'#twitterisatrap'
p2812
I1
sS'never'
p2813
I11
sS'@zackrik'
p2814
I1
sS'met'
p2815
I1
sS'@geewiiz_:'
p2816
I1
sS"aren't"
p2817
I1
sS'dry'
p2818
I8
sS'\xf0\x9f\x98\x82\xf0\x9f\x98\x82\xf0\x9f\x98\x82'
p2819
I4
sS'#90skids'
p2820
I1
sS'spew'
p2821
I2
sS'#breezy'
p2822
I1
sS'slices'
p2823
I1
sS'#frontierairlines'
p2824
I2
sS'#vsco'
p2825
I2
sS'drowned'
p2826
I1
sS'right?'
p2827
I1
sS'call'
p2828
I2
sS'calm'
p2829
I1
sS'right.'
p2830
I2
sS'type'
p2831
I5
sS'tell'
p2832
I5
sS'http:\xe2\x80\xa6'
p2833
I3
sS'posting'
p2834
I2
sS'cookies...#yolo'
p2835
I1
sS'#lovetheguy'
p2836
I1
sS'warm'
p2837
I9
sS'adult'
p2838
I3
sS'\xc2\xa34'
p2839
I1
sS'#nofilter\xe2\x80\xa6'
p2840
I1
sS'#gangstastyle'
p2841
I1
sS'#polishgirl'
p2842
I1
sS'ecstasy'
p2843
I1
sS'#foodporn'
p2844
I2
sS'#noworries'
p2845
I1
sS'give'
p2846
I4
sS'wrenches'
p2847
I1
sS'honey'
p2848
I3
sS'homie'
p2849
I2
sS'people...'
p2850
I1
sS'aging'
p2851
I1
sS'@wtfgice'
p2852
I3
sS'diabetus'
p2853
I1
sS'amazing'
p2854
I2
sS'answer'
p2855
I1
sS'butting'
p2856
I1
sS'@jasonmeyers19'
p2857
I1
sS'cornrows'
p2858
I1
sS'http://t.co/otjyvau0p3'
p2859
I1
sS'naked...#yolo'
p2860
I1
sS'lesbian'
p2861
I2
sS'#hashtagssindkrass'
p2862
I1
sS'purchase'
p2863
I1
sS'attempt'
p2864
I1
sS'third'
p2865
I1
sS'#happybirthdaytome'
p2866
I2
sS'whatever...'
p2867
I1
sS'#la'
p2868
I1
sS'#bloodymarry'
p2869
I1
sS'jack'
p2870
I1
sS'fifa'
p2871
I1
sS'dyyyyyyying'
p2872
I1
sS'down?'
p2873
I1
sS'deck'
p2874
I1
sS'#cuzzo'
p2875
I1
sS'#tweet'
p2876
I1
sS'#versace'
p2877
I1
sS'keyboard'
p2878
I1
sS'http://t.co/umx2amyozf'
p2879
I1
sS'chihuahua'
p2880
I1
sS'personal'
p2881
I2
sS'#darkcircles'
p2882
I1
sS'crew'
p2883
I1
sS'better'
p2884
I5
sS'@bethanrskuse'
p2885
I1
sS'weeks'
p2886
I4
sS'overbooked.'
p2887
I1
sS'#rain'
p2888
I1
sS'potter'
p2889
I2
sS'workout'
p2890
I2
sS'@drivingtestdts'
p2891
I1
sS'week.'
p2892
I3
sS'week!'
p2893
I1
sS'arrested'
p2894
I2
sS'directamente'
p2895
I1
sS'week?'
p2896
I1
sS'went'
p2897
I11
sS'bong'
p2898
I2
sS'side'
p2899
I4
sS'mean'
p2900
I2
sS'gunna'
p2901
I1
sS'ligo'
p2902
I1
sS'forgot'
p2903
I3
sS'@celest_3'
p2904
I2
sS'is!'
p2905
I1
sS'grease'
p2906
I1
sS'cutest'
p2907
I2
sS'resume'
p2908
I1
sS"20's"
p2909
I1
sS'others\xe2\x80\x94one'
p2910
I1
sS'fave'
p2911
I1
sS'#hahahah'
p2912
I1
sS'#extra'
p2913
I1
sS'struggle'
p2914
I1
sS'brownies.'
p2915
I1
sS'k/o'
p2916
I1
sS'starts'
p2917
I2
sS'cosmic'
p2918
I1
sS'g\xe2\x80\xa6'
p2919
I1
sS'slut.'
p2920
I1
sS'signature'
p2921
I1
sS'fuckin'
p2922
I5
sS'enjoy'
p2923
I7
sS'mexico\xf0\x9f\x98\x82'
p2924
I1
sS'http://t.co/3uqagunvvk'
p2925
I1
sS'@mnwigansalford'
p2926
I1
sS'floors'
p2927
I1
sS'ditch'
p2928
I1
sS'footlong...#yolo'
p2929
I1
sS'#longlunch'
p2930
I1
sS'brock'
p2931
I1
sS'#serengeti'
p2932
I1
sS'girls'
p2933
I7
sS'@lanny_smith'
p2934
I1
sS'bouncing'
p2935
I1
sS'gym'
p2936
I5
sS'typing'
p2937
I1
sS'somewhat'
p2938
I1
sS'#drakeuni'
p2939
I1
sS'@tplouffe24'
p2940
I1
sS'lines...#yolo'
p2941
I1
sS'matter'
p2942
I1
sS'http://t.co/d1tk0beg3a'
p2943
I1
sS'#cycling'
p2944
I1
sS'#addiction'
p2945
I1
sS'@clairecaudell:'
p2946
I1
sS'#adventure'
p2947
I1
sS'mini'
p2948
I1
sS'http://t.co/7j8wdtfu3y'
p2949
I2
sS'sees'
p2950
I1
sS'modern'
p2951
I1
sS'mind'
p2952
I2
sS'mine'
p2953
I3
sS'seen'
p2954
I2
sS'mins'
p2955
I2
sS'24/7....then'
p2956
I10
sS'#dangerous'
p2957
I1
sS'@yaboylilb:'
p2958
I1
sS'do.'
p2959
I2
sS'do!'
p2960
I1
sS'#pinktoes'
p2961
I1
sS'point.'
p2962
I1
sS'hoody'
p2963
I1
sS'@agentjoebilletz:'
p2964
I2
sS'blessed!'
p2965
I1
sS'\xf0\x9f\x98\x8e\xe2\x9d\xa4\xef\xb8\x8f'
p2966
I1
sS'#jennamarbles'
p2967
I1
sS'ostrich...#yolo'
p2968
I1
sS'alarm'
p2969
I1
sS'dog'
p2970
I5
sS'doe'
p2971
I1
sS'http://t.co/kwuyq4e\xe2\x80\xa6'
p2972
I1
sS'points'
p2973
I1
sS'@shipley_amanda'
p2974
I1
sS'http://t.co/8bujay5hsd'
p2975
I1
sS'probs'
p2976
I3
sS'northeast'
p2977
I1
sS'http://t.co/petefyuabo'
p2978
I1
sS'explain'
p2979
I1
sS'#tempted'
p2980
I1
sS'sugar'
p2981
I1
sS'@pres_tomato2014'
p2982
I1
sS'wearing'
p2983
I24
sS'11'
p2984
I1
sS'10'
p2985
I4
sS'stop'
p2986
I6
sS'messiest'
p2987
I1
sS'watermelon'
p2988
I1
sS'earl'
p2989
I1
sS'#whatthefuck'
p2990
I1
sS'bar'
p2991
I1
sS'@no_commitments:'
p2992
I1
sS'#flyaway'
p2993
I1
sS'bag'
p2994
I1
sS'bad'
p2995
I8
sS'bae'
p2996
I1
sS'@legrandfritz'
p2997
I1
sS'weekend.'
p2998
I1
sS'weekend!'
p2999
I1
sS'bak'
p3000
I1
sS'@bailey_calloway'
p3001
I1
sS'trip\xe2\x9c\x8c\xef\xb8\x8f\xf0\x9f\x91\xad.'
p3002
I1
sS'decided'
p3003
I8
sS'@mdh182:'
p3004
I1
sS'#collegeprobs'
p3005
I1
sS'-ypsi/eca'
p3006
I1
sS'said'
p3007
I5
sS'shaved'
p3008
I1
sS'#masterkey'
p3009
I1
sS'#tinder'
p3010
I1
sS"there's"
p3011
I4
sS'0%'
p3012
I1
sS'#fitness'
p3013
I3
sS'#happymoment'
p3014
I1
sS'lazy'
p3015
I1
sS'omg'
p3016
I3
sS'vitamin'
p3017
I1
sS'cousin'
p3018
I2
sS'motto'
p3019
I3
sS'#rockinit'
p3020
I1
sS'piggies'
p3021
I1
sS'ring...#yolo'
p3022
I1
sS'cartilage'
p3023
I1
sS'uni'
p3024
I1
sS'#mountains'
p3025
I1
sS'#animexx'
p3026
I2
sS'#bucketlist'
p3027
I4
sS'@soyfherescobedo:'
p3028
I1
sS'http://t.co/ycu5nixlvc'
p3029
I1
sS'mc?'
p3030
I1
sS'loaded'
p3031
I1
sS'#lego'
p3032
I1
sS'now.'
p3033
I5
sS'now!'
p3034
I2
sS'now?'
p3035
I1
sS'detrimental'
p3036
I1
sS'#instaphotos'
p3037
I1
sS'threw'
p3038
I3
sS'#it'
p3039
I1
sS'soooon'
p3040
I1
sS'mca'
p3041
I6
sS'aviation'
p3042
I1
sS'#buddies'
p3043
I1
sS'#collegelyfe'
p3044
I1
sS'ask?'
p3045
I1
sS'mustangs'
p3046
I4
sS'spontaneously'
p3047
I1
sS'worse.'
p3048
I1
sS'weaving...#yolo'
p3049
I1
sS'chilling'
p3050
I1
sS'over.'
p3051
I1
sS'iv'
p3052
I1
sS'ii'
p3053
I2
sS'shame'
p3054
I1
sS'cant'
p3055
I4
sS'im'
p3056
I17
sS'gumabao'
p3057
I1
sS'make'
p3058
I22
sS'belly'
p3059
I2
sS'#party'
p3060
I8
sS'can!'
p3061
I1
sS'can.'
p3062
I2
sS'ella'
p3063
I1
sS"y'all...?!!"
p3064
I2
sS'kik'
p3065
I1
sS'kim'
p3066
I2
sS'#elvis'
p3067
I1
sS'thoughts'
p3068
I1
sS'kid'
p3069
I6
sS'programs'
p3070
I1
sS'city...#yolo'
p3071
I1
sS'#needtopractice'
p3072
I1
sS'haha.'
p3073
I3
sS'pooping'
p3074
I1
sS'left'
p3075
I4
sS'yea'
p3076
I1
sS'game...starting'
p3077
I1
sS'http://t.co/jc78u7cl8s'
p3078
I1
sS'human'
p3079
I1
sS'#wfh'
p3080
I1
sS'#acdc'
p3081
I1
sS'yes'
p3082
I7
sS'venda'
p3083
I1
sS'yet'
p3084
I3
sS'belfast'
p3085
I1
sS'tmrw'
p3086
I1
sS'tuesday!!!!!!!!!!!!'
p3087
I1
sS'@miahswed'
p3088
I1
sS'background'
p3089
I2
sS'bad.'
p3090
I1
sS'@lani_pane'
p3091
I1
sS'dreams'
p3092
I2
sS'nevermind'
p3093
I1
sS'#np'
p3094
I3
sS'@mel_clement'
p3095
I1
sS'http://t.co/xcaoghiouz'
p3096
I1
sS'@aprilkillahh'
p3097
I1
sS'well.....#yolo?'
p3098
I1
sS'http://t.co/zypf7ia7ti'
p3099
I1
sS'#halloween'
p3100
I2
sS'#waxmuseum'
p3101
I17
sS'http://t.co/zirca639gu'
p3102
I1
sS'somehow'
p3103
I1
sS'elderly'
p3104
I1
sS'dear'
p3105
I1
sS'repelling'
p3106
I1
sS'#mybad'
p3107
I1
sS'shapes'
p3108
I1
sS'microwave'
p3109
I1
sS'#voltaire'
p3110
I2
sS'keeper'
p3111
I1
sS'super'
p3112
I3
sS'@jjpearcevb:'
p3113
I2
sS'puking'
p3114
I1
sS'yelling'
p3115
I5
sS'afternoon'
p3116
I4
sS'soooooooooooooooooooooooooooooooooooooooooooooo'
p3117
I2
sS'commit'
p3118
I1
sS'luan'
p3119
I1
sS'for.'
p3120
I1
sS'info.'
p3121
I1
sS'selfie'
p3122
I9
sS'#fingerscrossed'
p3123
I1
sS'#tatto'
p3124
I1
sS'form'
p3125
I2
sS'http://t.co/ag2czahiod'
p3126
I1
sS'what:'
p3127
I1
sS'ford'
p3128
I2
sS'diaper'
p3129
I1
sS'what!'
p3130
I1
sS'centipede'
p3131
I1
sS'#worstbehavior'
p3132
I1
sS'delete'
p3133
I1
sS'@maurashevlin_'
p3134
I1
sS'classic'
p3135
I1
sS'toss'
p3136
I1
sS'#fosho'
p3137
I1
sS'sale'
p3138
I1
sS'#selfiesunday'
p3139
I2
sS'floating'
p3140
I1
sS'die!'
p3141
I1
sS'shit'
p3142
I9
sS'discriminate'
p3143
I1
sS'#orlovi'
p3144
I1
sS'\xf0\x9f\x92\x80\xf0\x9f\x98\xb7'
p3145
I1
sS'#iweareverysinglechainevenwheniminthehouse'
p3146
I1
sS'warehouse'
p3147
I1
sS'#guinness'
p3148
I1
sS'savage'
p3149
I1
sS'handicap'
p3150
I1
sS'#mmm'
p3151
I2
sS'pathetic.'
p3152
I1
sS'fell'
p3153
I1
sS'pizzas'
p3154
I1
sS'http://t.co/c4pr9bfnmw'
p3155
I1
sS'moie'
p3156
I1
sS'jacket'
p3157
I2
sS'teeth'
p3158
I1
sS'#crazy'
p3159
I4
sS'#lovelovelove'
p3160
I1
sS'managed'
p3161
I4
sS'skip'
p3162
I2
sS'manager'
p3163
I1
sS'milk'
p3164
I3
sS'casual...'
p3165
I1
sS'21st'
p3166
I2
sS'suicide'
p3167
I1
sS'#happy'
p3168
I5
sS'@mccallionjordan'
p3169
I1
sS'finally'
p3170
I4
sS'off.'
p3171
I1
sS'http://t.co/xb31krbk2u'
p3172
I1
sS'theme.'
p3173
I1
sS'http://t.co/npyuedvgea'
p3174
I1
sS'ma'
p3175
I4
sS'die'
p3176
I4
sS'accidentally'
p3177
I11
sS'@deadspin:'
p3178
I1
sS'tompoucen'
p3179
I1
sS'item'
p3180
I1
sS'laxatives'
p3181
I2
sS'diz'
p3182
I2
sS'#ridacard'
p3183
I1
sS'@bergst3r_tk'
p3184
I1
sS'round'
p3185
I4
sS"it'll"
p3186
I2
sS'talked'
p3187
I1
sS'dealing'
p3188
I1
sS'eating'
p3189
I24
sS"tyson's"
p3190
I1
sS'plebs'
p3191
I1
sS'lennox'
p3192
I2
sS'norris'
p3193
I1
sS'batha.'
p3194
I1
sS'daft'
p3195
I1
sS'#dubai'
p3196
I1
sS'#stressed'
p3197
I1
sS'sweaters'
p3198
I1
sS'mp'
p3199
I1
sS'bandwagon'
p3200
I1
sS'makeup'
p3201
I4
sS'french'
p3202
I1
sS'#holidays'
p3203
I1
sS'@jatuggle:'
p3204
I1
sS'farting'
p3205
I1
sS'wait'
p3206
I6
sS'box'
p3207
I4
sS'boy'
p3208
I2
sS'#scotland'
p3209
I1
sS'yessss'
p3210
I1
sS'#calories'
p3211
I1
sS'canadian'
p3212
I1
sS'...jk'
p3213
I1
sS'@chandlerelise_:'
p3214
I1
sS'@spencyyyx:'
p3215
I1
sS'http://t.co/l1vftpug0z'
p3216
I2
sS'&amp;\xe2\x80\xa6'
p3217
I1
sS'everybody'
p3218
I3
sS'tags)'
p3219
I2
sS'days!!'
p3220
I2
sS'@ngellow1'
p3221
I9
sS'swagger'
p3222
I1
sS'#yolo...'
p3223
I3
sS'ooo'
p3224
I2
sS'@nicoleevans27'
p3225
I1
sS'appel'
p3226
I2
sS'fly'
p3227
I1
sS'#likesforlikes'
p3228
I2
sS'avoiding'
p3229
I1
sS'looool'
p3230
I1
sS'growing'
p3231
I4
sS'making'
p3232
I7
sS'septum'
p3233
I1
sS'guy.'
p3234
I2
sS'crazy'
p3235
I5
sS'guss...#yolo'
p3236
I1
sS'\xe2\x80\x9c@ashworthbentley:'
p3237
I4
sS'fuck'
p3238
I20
sS'@jessiej'
p3239
I3
sS'pink'
p3240
I2
sS'till'
p3241
I3
sS'sunday'
p3242
I8
sS'sword'
p3243
I1
sS'pint'
p3244
I1
sS'map'
p3245
I1
sS'staying'
p3246
I3
sS'mar'
p3247
I1
sS'#sendit'
p3248
I1
sS'strokes'
p3249
I1
sS'traffic...#yolo'
p3250
I1
sS'mac'
p3251
I2
sS'mad'
p3252
I6
sS'\xe2\x80\x9c@charlieglynnhb:'
p3253
I1
sS'!!!'
p3254
I4
sS'guys'
p3255
I6
sS'grow'
p3256
I2
sS'man'
p3257
I3
sS'#florida'
p3258
I1
sS'maybe'
p3259
I4
sS'@leilabel99:'
p3260
I1
sS'idc'
p3261
I1
sS'jail'
p3262
I1
sS'african'
p3263
I3
sS'basket'
p3264
I1
sS'cabbing'
p3265
I1
sS'talk'
p3266
I3
sS"worm&amp;y'all"
p3267
I1
sS'cute'
p3268
I2
sS'shoes'
p3269
I1
sS'http://t.co/yjzbndt9qv\xe2\x80\x9d'
p3270
I1
sS'wishing'
p3271
I1
sS'#blue'
p3272
I1
sS'#obama'
p3273
I2
sS'#pad'
p3274
I1
sS'thank'
p3275
I4
sS'\xe2\x80\x9c@marcos_solis11:'
p3276
I1
sS'#damnhot'
p3277
I9
sS'\xf0\x9f\x98\x82\xf0\x9f\x98\x82\xf0\x9f\x98\x82\xf0\x9f\x98\x82'
p3278
I2
sS'tweets'
p3279
I2
sS'tomorow'
p3280
I1
sS'@panku_'
p3281
I1
sS'#retweet'
p3282
I4
sS'http://t.co/ueief86tpq'
p3283
I1
sS'kkt'
p3284
I1
sS'http://t.co/umfj3habnk'
p3285
I1
sS'@peaceandlove371'
p3286
I1
sS'lunch'
p3287
I4
sS"kids'"
p3288
I1
sS'killed'
p3289
I1
sS'http://t.co/czmuarxkxn'
p3290
I1
sS'zain'
p3291
I1
sS'beach'
p3292
I20
sS'@warwicknewyork'
p3293
I1
sS'http://t.co/9ug9ayxbrz'
p3294
I1
sS'jokes.'
p3295
I1
sS'rock'
p3296
I1
sS'#sweetlife'
p3297
I1
sS'#haggis'
p3298
I1
sS'@jirayalecochon'
p3299
I1
sS'http://t.co/grzlnhhprw'
p3300
I1
sS'girl'
p3301
I11
sS'requesting'
p3302
I1
sS'living'
p3303
I1
sS'#die\xe2\x80\xa6'
p3304
I1
sS'#srbija'
p3305
I1
sS'jones...#yolo'
p3306
I1
sS'miles'
p3307
I2
sS'\xe2\x80\x9c@ronfaison:'
p3308
I2
sS'@biinnytv'
p3309
I1
sS'nudes'
p3310
I2
sS'#fendi'
p3311
I1
sS'http://t.co/nmpgxbbkv7'
p3312
I1
sS'underwear'
p3313
I3
sS'#netde'
p3314
I1
sS'carnival'
p3315
I1
sS'waiter'
p3316
I1
sS'http://t.co/owtty1pgso'
p3317
I1
sS'truck...#yolo'
p3318
I1
sS'snapback'
p3319
I1
sS'thing'
p3320
I4
sS'think'
p3321
I15
sS'first'
p3322
I29
sS'cheese'
p3323
I6
sS'#gbbo'
p3324
I1
sS'rachel'
p3325
I1
sS'crib'
p3326
I1
sS'head...#yolo'
p3327
I3
sS'long'
p3328
I4
sS'suspended'
p3329
I1
sS'sounds'
p3330
I8
sS'#popular'
p3331
I1
sS'little'
p3332
I15
sS'anyone'
p3333
I2
sS'eyes'
p3334
I4
sS'#look'
p3335
I1
sS'butt'
p3336
I3
sS'antiobiotics.'
p3337
I1
sS"here's"
p3338
I2
sS'http://t.co/uasr37cyp0'
p3339
I1
sS'seeds...#yolo'
p3340
I1
sS'12'
p3341
I8
sS'15'
p3342
I6
sS'14'
p3343
I1
sS'apple\xe2\x80\x99s:'
p3344
I1
sS'16'
p3345
I1
sS'18'
p3346
I1
sS'gotta'
p3347
I3
sS'#planetarium'
p3348
I1
sS'proofread'
p3349
I1
sS'20s'
p3350
I1
sS'wooo!'
p3351
I1
sS'http://t.co/odx4cv4lv7'
p3352
I1
sS'#frambuesa'
p3353
I1
sS'squad'
p3354
I1
sS'switching'
p3355
I1
sS'channel'
p3356
I1
sS'normal'
p3357
I1
sS'#vinefamily'
p3358
I1
sS'@kmariejones17:'
p3359
I1
sS'paid'
p3360
I1
sS'@nemesis305'
p3361
I4
sS'pair'
p3362
I1
sS'squirrel...#yolo'
p3363
I2
sS'roomies.'
p3364
I1
sS'@briandozier'
p3365
I1
sS'order'
p3366
I1
sS'#drake'
p3367
I2
sS'properly'
p3368
I1
sS'@amyeclark'
p3369
I1
sS'aip'
p3370
I1
sS'@baeblemusic:'
p3371
I1
sS'http://t.co/yn0tpaty7y'
p3372
I1
sS'shot'
p3373
I4
sS'show'
p3374
I2
sS'#joinme?'
p3375
I1
sS"mama's"
p3376
I1
sS'#comedy'
p3377
I1
sS'corner'
p3378
I1
sS'vetscience'
p3379
I1
sS'#cake'
p3380
I1
sS'dick'
p3381
I1
sS'cheeseburger'
p3382
I1
sS'behind'
p3383
I2
sS'#nightyall'
p3384
I1
sS'black'
p3385
I10
sS'awareness'
p3386
I1
sS'#foolishness\xe2\x80\xa6'
p3387
I1
sS'get'
p3388
I40
sS'@annapeloubet'
p3389
I1
sS'spraying'
p3390
I1
sS'nearly'
p3391
I1
sS'unicycling'
p3392
I1
sS'#gettingbitches'
p3393
I1
sS'morning'
p3394
I7
sS'stupid'
p3395
I2
sS'finishing'
p3396
I1
sS'inappropriately'
p3397
I1
sS'declared'
p3398
I1
sS'singer.'
p3399
I1
sS'tomorrow....#yolo??'
p3400
I1
sS'seat'
p3401
I1
sS'cocktails'
p3402
I1
sS'#noregrets'
p3403
I2
sS'@kaylabolduc:'
p3404
I1
sS'calendar'
p3405
I1
sS'wonder'
p3406
I1
sS'satisfying'
p3407
I1
sS'camping'
p3408
I2
sS'enough'
p3409
I4
sS'gago'
p3410
I1
sS'across'
p3411
I2
sS'#pijama'
p3412
I1
sS'#allergies'
p3413
I1
sS'parent'
p3414
I1
sS'jn'
p3415
I1
sS'jj'
p3416
I4
sS'jk'
p3417
I1
sS'je'
p3418
I2
sS'jb'
p3419
I1
sS'dates'
p3420
I2
sS'blokia'
p3421
I1
sS'#alot'
p3422
I1
sS'similar'
p3423
I1
sS'#alol'
p3424
I2
sS'cancer'
p3425
I1
sS'up...#yolo'
p3426
I4
sS'arts'
p3427
I1
sS'crates...'
p3428
I1
sS'camembert'
p3429
I1
sS'mark'
p3430
I1
sS'workshop'
p3431
I1
sS'@indiffxrent'
p3432
I1
sS'#henryford'
p3433
I1
sS'http://t.co/zddygo7wq9'
p3434
I1
sS'shopping'
p3435
I1
sS'offered'
p3436
I1
sS'@androtuisk'
p3437
I1
sS'asphyxiwank'
p3438
I1
sS'yoooo!'
p3439
I1
sS'wake'
p3440
I7
sS'pre-algebra'
p3441
I2
sS'turtles'
p3442
I1
sS'#coat'
p3443
I1
sS'#badbitch:p'
p3444
I1
sS'#masaket'
p3445
I1
sS'whoopwhoopjflskskxnznxkxjxjxj'
p3446
I1
sS'http://t.co/rcz0imm25j'
p3447
I1
sS'ratchet'
p3448
I1
sS'#eutraveladventure\xe2\x80\xa6'
p3449
I1
sS'art.'
p3450
I1
sS'ethically'
p3451
I1
sS'coffee'
p3452
I3
sS'sleeping'
p3453
I11
sS'http://t.co/mnkr19vwzz'
p3454
I1
sS'middle'
p3455
I6
sS'http://t.co/ytwvbyymvu'
p3456
I1
sS'everyday'
p3457
I4
sS'bags'
p3458
I2
sS'different'
p3459
I1
sS'doctor'
p3460
I2
sS'speech'
p3461
I1
sS'stepped'
p3462
I1
sS'pal'
p3463
I2
sS'\xe2\x80\x9c@_coldestgirl:'
p3464
I2
sS'lagiii'
p3465
I1
sS"sleepin'"
p3466
I1
sS'running'
p3467
I4
sS'mindfulness-based'
p3468
I1
sS'conference.'
p3469
I1
sS'totally'
p3470
I1
sS'walkover'
p3471
I1
sS'bottle'
p3472
I5
sS'#omoney'
p3473
I1
sS'#imbroke\xe2\x80\xa6'
p3474
I1
sS'consisted'
p3475
I1
sS'gates'
p3476
I1
sS'money'
p3477
I9
sS'time!!'
p3478
I1
sS'http://t.co/rre3uav2by'
p3479
I1
sS'pissing'
p3480
I1
sS'@enterjackari'
p3481
I1
sS'@skylux_lounge'
p3482
I1
sS'#priorities'
p3483
I1
sS'@appelforiowa'
p3484
I2
sS'omg!'
p3485
I1
sS'bank'
p3486
I1
sS'#mademeproud'
p3487
I1
sS"pill...didn't"
p3488
I1
sS'borat'
p3489
I1
sS'ear...#yolo\xc2\xac\xe2\x80\xa0'
p3490
I2
sS'docks'
p3491
I1
sS'mom'
p3492
I4
sS'goldfish.'
p3493
I1
sS'grim'
p3494
I1
sS'http://t.co/js72k0ylmh'
p3495
I1
sS'@siobhanharnedy'
p3496
I2
sS'either'
p3497
I3
sS'#olhos'
p3498
I1
sS'http://t.co/gz75psrsl7'
p3499
I1
sS'http://t.co/smcvibpunp'
p3500
I2
sS'#3dayjuicecleanse'
p3501
I1
sS'matching'
p3502
I1
sS'gross'
p3503
I1
sS'overly'
p3504
I3
sS'#puessi'
p3505
I1
sS'http://t.co/8qpjkglgk2'
p3506
I1
sS'baileys'
p3507
I1
sS":'-)"
p3508
I1
sS'broken'
p3509
I2
sS'#worththerisk'
p3510
I1
sS'\xf0\x9f\x92\x95#yolo'
p3511
I1
sS'island'
p3512
I1
sS'violence'
p3513
I1
sS'http://t.co/bzgpke88vg'
p3514
I1
sS'@stuhartford'
p3515
I1
sS'out.'
p3516
I1
sS'\xf0\x9f\x98\x91\xe2\x80\x9d\xe2\x80\x9d\xf0\x9f\x98\x91\xf0\x9f\x98\xaa'
p3517
I1
sS'#ilovefood'
p3518
I1
sS'blessed'
p3519
I1
sS'strip'
p3520
I1
sS'morning.'
p3521
I2
sS'http://t.co/kypb8a6oa0'
p3522
I1
sS'#new'
p3523
I1
sS'@vash1055'
p3524
I1
sS'shells'
p3525
I1
sS'#lipread'
p3526
I1
sS'@jannahuang:'
p3527
I1
sS'4:30'
p3528
I1
sS'@gln3pc:'
p3529
I1
sS'passports'
p3530
I2
sS'#fashion'
p3531
I9
sS'daddy...'
p3532
I2
sS'party!!'
p3533
I2
sS'#fun'
p3534
I11
sS'#ocdhasnoholdonme'
p3535
I1
sS"wasn't"
p3536
I2
sS'strawberry'
p3537
I3
sS'videos'
p3538
I2
sS'rapids'
p3539
I1
sS'deep'
p3540
I2
sS'@4middleschool:'
p3541
I2
sS'impatient'
p3542
I1
sS'@tasharees:'
p3543
I1
sS'#ecard'
p3544
I1
sS'#wvsuccess'
p3545
I1
sS'field'
p3546
I1
sS'wrong...#yolo'
p3547
I1
sS'shelter'
p3548
I1
sS'video:'
p3549
I2
sS'#21'
p3550
I1
sS'http://t.co/cjtlgd1qtb'
p3551
I1
sS'20mins'
p3552
I1
sS"life's"
p3553
I3
sS'#applelive'
p3554
I1
sS'alright'
p3555
I1
sS'starting'
p3556
I1
sS'#boss'
p3557
I1
sS'#adult'
p3558
I2
sS'represent'
p3559
I1
sS'forget'
p3560
I1
sS'allergy'
p3561
I4
sS'dollar'
p3562
I2
sS'worms'
p3563
I1
sS'.....'
p3564
I3
sS'#doyou'
p3565
I2
sS'@marques_j_smith'
p3566
I1
sS'imma'
p3567
I2
sS'@sharayahgrossoe'
p3568
I1
sS'enjoying'
p3569
I4
sS'http://t.co/ll2igj3qws'
p3570
I1
sS'@andrewsmhay:'
p3571
I1
sS'#pokolee'
p3572
I1
sS'returning'
p3573
I1
sS'fall'
p3574
I1
sS'@ichigobooboo:'
p3575
I8
sS'ramen'
p3576
I1
sS'washing'
p3577
I2
sS'http://t.co/axq2aiqgn9'
p3578
I1
sS'#cuteasf'
p3579
I1
sS'along.'
p3580
I1
sS'3part'
p3581
I1
sS'burger'
p3582
I1
sS'http://t.co/owrd5halbe'
p3583
I2
sS'basel.'
p3584
I1
sS'perspective'
p3585
I1
sS'@zacwoodward'
p3586
I1
sS'publix'
p3587
I1
sS'@wtfgice:'
p3588
I4
sS'#nature'
p3589
I20
sS'public'
p3590
I4
sS'tattoos'
p3591
I1
sS'#fire'
p3592
I1
sS'900'
p3593
I1
sS'#candy'
p3594
I1
sS'airport'
p3595
I1
sS'@adriannaa_marie'
p3596
I1
sS'#\xe2\x80\xa6'
p3597
I1
sS'\xf0\x9f\x99\x88'
p3598
I1
sS'\xf0\x9f\x99\x8a'
p3599
I1
sS'\xf0\x9f\x99\x8c'
p3600
I1
sS'\xf0\x9f\x99\x8f'
p3601
I1
sS'@chris_bigpoppa'
p3602
I2
sS'eye'
p3603
I5
sS'texting'
p3604
I3
sS'two'
p3605
I9
sS'saturday...'
p3606
I2
sS'#worththebruises'
p3607
I1
sS'bulgarian'
p3608
I1
sS"ain't"
p3609
I1
sS'@oggs324:'
p3610
I1
sS'motor-tor'
p3611
I1
sS'town'
p3612
I1
sS'hour'
p3613
I8
sS'@elitefourryan:'
p3614
I1
sS'work?'
p3615
I1
sS'#kingdom'
p3616
I1
sS'http://t.co/2mzh8a3dcr'
p3617
I1
sS'sucks'
p3618
I1
sS'http://t\xe2\x80\xa6'
p3619
I3
sS'lijun'
p3620
I1
sS'http://t.co/wx9vfy8qz6'
p3621
I1
sS'#oflowerofscotland'
p3622
I1
sS'hours.'
p3623
I1
sS'#bowdowntoher'
p3624
I2
sS'needs'
p3625
I3
sS'awkward'
p3626
I1
sS'#getonhislevel'
p3627
I1
sS'eat!'
p3628
I1
sS'#parlour'
p3629
I1
sS'blood'
p3630
I4
sS'http://t.co/iedfzydyn6'
p3631
I1
sS'#beauty'
p3632
I20
sS'#puneinstagrammers'
p3633
I3
sS'amrazing'
p3634
I2
sS'boysie'
p3635
I1
sS'http://t.co/wym7rbevyq'
p3636
I2
sS'tweeting'
p3637
I17
sS'playing'
p3638
I8
sS"that's"
p3639
I6
sS'#ride'
p3640
I1
sS'\xf0\x9f\x98\x9c\xe2\x9c\x8c\xef\xb8\x8f#yolo'
p3641
I1
sS'@damnyouburger'
p3642
I1
sS'24'
p3643
I2
sS'messed'
p3644
I1
sS'26'
p3645
I2
sS'@irena_chang'
p3646
I1
sS'20'
p3647
I3
sS'dolla'
p3648
I1
sS'late'
p3649
I18
sS'penn'
p3650
I1
sS'#seniorcitizens'
p3651
I1
sS'#shootforthestars'
p3652
I1
sS'maybeeee'
p3653
I1
sS'good'
p3654
I13
sS'uhm'
p3655
I1
sS'stain.'
p3656
I1
sS'#hotasfuck'
p3657
I1
sS'drake'
p3658
I2
sS'also.'
p3659
I1
sS'clams'
p3660
I2
sS'house'
p3661
I7
sS'fish'
p3662
I1
sS'hard'
p3663
I3
sS'ganes'
p3664
I1
sS'#runkeeper'
p3665
I1
sS'@br4mm3n:'
p3666
I4
sS'uninvited'
p3667
I1
sS'lunastar_3'
p3668
I1
sS'discouraging'
p3669
I1
sS'today....'
p3670
I1
sS'bully'
p3671
I1
sS'http://t.co/fmecs9ufoq'
p3672
I1
sS'casillas'
p3673
I1
sS'#darlingchownow'
p3674
I1
sS'@younghaitti\xc2\xa0'
p3675
I2
sS'http://t.co/ma46ricgkw'
p3676
I2
sS'mmm'
p3677
I1
sS'http://t.co/f2brdtrmrf'
p3678
I1
sS'backed'
p3679
I1
sS'@lightninglouis_:'
p3680
I1
sS'benefits'
p3681
I1
sS'bananas...'
p3682
I1
sS'5sos'
p3683
I4
sS'#sleepless'
p3684
I1
sS'dont'
p3685
I5
sS'woop!'
p3686
I1
sS'done'
p3687
I6
sS'http://t.co/1schabqanl'
p3688
I1
sS'cups'
p3689
I1
sS'kailee'
p3690
I1
sS'least'
p3691
I1
sS'#awyeah'
p3692
I3
sS'\xe2\x9c\x8c\xef\xb8\x8f\xf0\x9f\x8e\xb6'
p3693
I2
sS'http://t.co/uv8grfjvf5'
p3694
I1
sS'http://t.co/qq9pifxy'
p3695
I2
sS'lease'
p3696
I1
sS'#turnuportransfer'
p3697
I2
sS'needle'
p3698
I1
sS'park'
p3699
I1
sS'dentist'
p3700
I1
sS'@halfbreed4life:'
p3701
I1
sS'woops'
p3702
I1
sS'supposed'
p3703
I1
sS'outta'
p3704
I1
sS'#withdrawalsymptomsnotgone'
p3705
I1
sS'ages'
p3706
I3
sS'http://t.co/dncgzghz5t'
p3707
I1
sS'sunday...'
p3708
I1
sS'http://t.co/tuwcpnvz4x'
p3709
I1
sS'@imasamander'
p3710
I1
sS'mountain'
p3711
I1
sS'trip'
p3712
I4
sS'majority'
p3713
I2
sS'turban...#yolo'
p3714
I1
sS'#press'
p3715
I1
sS'#df'
p3716
I18
sS'cape...#yolo'
p3717
I1
sS'flute'
p3718
I1
sS"'80"
p3719
I1
sS'#evalizz'
p3720
I1
sS'out...#yolo'
p3721
I1
sS'#besties'
p3722
I2
sS'km'
p3723
I1
sS'chester'
p3724
I1
sS'http://t.co/revfposszd'
p3725
I1
sS'#mumdidntbuyit'
p3726
I1
sS'http://t.co/llopa0w2yr'
p3727
I1
sS'#honestyhour'
p3728
I5
sS'ootd'
p3729
I1
sS'hopped'
p3730
I1
sS'find'
p3731
I8
sS'extraordinaire:'
p3732
I1
sS'#crazyhawaii'
p3733
I1
sS'yards...#yolo'
p3734
I1
sS'mower'
p3735
I1
sS'cheaper'
p3736
I1
sS'ferrer'
p3737
I1
sS'tuesday:'
p3738
I1
sS'#ballin'
p3739
I1
sS'@jcottingham16'
p3740
I1
sS'garcia'
p3741
I1
sS'\xf0\x9f\x98\x81\xf0\x9f\x98\x89\xf0\x9f\x98\x82\xf0\x9f\x98\xb4\xe2\x9c\x8c\xef\xb8\x8f'
p3742
I1
sS'http://t.co/ltswupryor'
p3743
I1
sS'#imissyou'
p3744
I1
sS'betches!!!!!'
p3745
I2
sS'individual'
p3746
I1
sS'#noimreallypissed'
p3747
I1
sS'#fuckautism'
p3748
I1
sS'rays.'
p3749
I1
sS'please'
p3750
I3
sS"kid's"
p3751
I1
sS'@stelfc91'
p3752
I1
sS'fans'
p3753
I3
sS'http://t.co/xc6xtegozz'
p3754
I1
sS'pissed'
p3755
I1
sS'#mostlyjusthungry'
p3756
I1
sS'20/1'
p3757
I1
sS'annual'
p3758
I1
sS'tempos'
p3759
I1
sS'http://t.co/kiqun8vzrg'
p3760
I1
sS'!!!!!!!'
p3761
I1
sS'point'
p3762
I2
sS'hairdo...she'
p3763
I1
sS'lbs'
p3764
I1
sS'newborn'
p3765
I1
sS'http://t.co/nxgp2kp3in'
p3766
I1
sS'http://t.co/ogw0lxqm8l'
p3767
I1
sS'create'
p3768
I2
sS'ran'
p3769
I1
sS'meeting'
p3770
I3
sS'godric'
p3771
I1
sS'fur'
p3772
I1
sS'#burymeinblack'
p3773
I1
sS'solid'
p3774
I1
sS'fun'
p3775
I12
sS'pegging'
p3776
I1
sS'@alevelproblems:'
p3777
I1
sS'bummy'
p3778
I1
sS'#iscout'
p3779
I1
sS'#pgce'
p3780
I1
sS'#pleasestop'
p3781
I1
sS'aches'
p3782
I1
sS'#wolfgangmalaysia\xe2\x80\xa6'
p3783
I1
sS'#benidorm'
p3784
I1
sS'http://t.co/rlxwvh51jf'
p3785
I1
sS'#mjipange'
p3786
I2
sS'#duked'
p3787
I2
sS'#imlovinit'
p3788
I1
sS'#estonotermina'
p3789
I1
sS'strips'
p3790
I1
sS'humber'
p3791
I1
sS'chances.'
p3792
I1
sS'leopard'
p3793
I1
sS'yesterday'
p3794
I2
sS'#dayout'
p3795
I1
sS'moment'
p3796
I2
sS'#fuckcollegegetmoneyymcmbovo'
p3797
I1
sS'http://t.co/gyiscu3cat'
p3798
I1
sS'#thebest'
p3799
I1
sS'#givenchy'
p3800
I9
sS'#polo'
p3801
I2
sS'spent'
p3802
I6
sS'flags'
p3803
I1
sS'#welovetosweat'
p3804
I1
sS'spend'
p3805
I1
sS'aggroing'
p3806
I1
sS'cayo'
p3807
I1
sS'\xf0\x9f\x92\x9e\xf0\x9f\x92\x93\xf0\x9f\x92\x98\xf0\x9f\x92\x9e\xf0\x9f\x92\x93\xf0\x9f\x92\x96\xf0\x9f\x92\x97\xf0\x9f\x92\x97\xf0\x9f\x92\x97\xf0\x9f\x92\x9e\xf0\x9f\x92\x93\xf0\x9f\x92\x93\xf0\x9f\x92\x96\xf0\x9f\x92\x96\xf0\x9f\x92\x96'
p3808
I1
sS'dominatrix.....'
p3809
I1
sS'irritable'
p3810
I1
sS'@joshclegg10'
p3811
I1
sS'http://t.co/2odgm5gxxq'
p3812
I1
sS'letting'
p3813
I1
sS'cut'
p3814
I3
sS'cup'
p3815
I2
sS'cuz'
p3816
I3
sS'chugged'
p3817
I1
sS'wall...#yolo'
p3818
I1
sS'snap'
p3819
I4
sS'excited'
p3820
I2
sS'@wilkinsonftrupp:'
p3821
I1
sS'bio'
p3822
I2
sS'#music'
p3823
I1
sS'@kimberlocks:'
p3824
I1
sS'big'
p3825
I8
sS'store...#yolo'
p3826
I7
sS'bit'
p3827
I1
sS'@alexbroun'
p3828
I1
sS'glove'
p3829
I1
sS'@zafri09'
p3830
I1
sS'jobs:'
p3831
I1
sS'google'
p3832
I1
sS'absolutely'
p3833
I2
sS'back'
p3834
I26
sS"let's!"
p3835
I1
sS'#morning'
p3836
I1
sS'jewelry'
p3837
I1
sS'#atleastourprofessorishot'
p3838
I1
sS'pet'
p3839
I2
sS'@cgordonwebster:'
p3840
I1
sS'#oomf'
p3841
I1
sS'5:10'
p3842
I1
sS'good!'
p3843
I2
sS'pen'
p3844
I2
sS'hahaha.'
p3845
I1
sS'laughing'
p3846
I1
sS'amazin'
p3847
I1
sS'patient'
p3848
I1
sS'benidorm'
p3849
I1
sS'@obvious_tuba'
p3850
I1
sS'http://t.co/35ttk3po7j'
p3851
I1
sS'upton?'
p3852
I1
sS'zach.'
p3853
I1
sS'mrs.'
p3854
I1
sS'today..'
p3855
I1
sS'bish'
p3856
I1
sS'\xe2\x88\x9a\xe2\x88\x9a\xe2\x88\x9a'
p3857
I1
sS'hahahah'
p3858
I1
sS'jimmy'
p3859
I1
sS'invading'
p3860
I1
sS'\xf0\x9f\x8e\xa4\xf0\x9f\x8e\xb6\xf0\x9f\x8e\xb5#mikisia'
p3861
I1
sS'\xf0\x9f\x99\x8c\xf0\x9f\x98\x98\xf0\x9f\x98\x9c'
p3862
I1
sS'steven'
p3863
I1
sS'21!!'
p3864
I4
sS'bankruptcy'
p3865
I1
sS'(west)'
p3866
I1
sS'homemade'
p3867
I1
sS'bored'
p3868
I1
sS'#two'
p3869
I4
sS'carbs;'
p3870
I1
sS'#togetherness\xe2\x80\xa6'
p3871
I1
sS'boys'
p3872
I1
sS'#rave'
p3873
I5
sS'\xe2\x99\xab'
p3874
I1
sS'@theswaagmachine:'
p3875
I1
sS'\xe2\x99\xa5'
p3876
I1
sS'\xe2\x99\xa1'
p3877
I1
sS'#shouldashavedmylegs'
p3878
I1
sS'#toplesstuesday'
p3879
I1
sS'#noragrets'
p3880
I2
sS'http://t.co/3v3fcluezd'
p3881
I1
sS'planes'
p3882
I1
sS'constant'
p3883
I1
sS'single'
p3884
I5
sS'stripper'
p3885
I1
sS'w/nutella\xe2\x80\xa6whilst'
p3886
I1
sS'\xc2\xa311'
p3887
I1
sS'b12'
p3888
I1
sS'cumpleeee'
p3889
I2
sS'facetiming'
p3890
I2
sS'@shaalvarez8:'
p3891
I1
sS'#tartan'
p3892
I1
sS'2000'
p3893
I1
sS'#tagforlikes'
p3894
I1
sS'happy.'
p3895
I1
sS'#f1'
p3896
I1
sS'fingers...#yolo'
p3897
I1
sS'blaze'
p3898
I1
sS'http://t.co/rffjmkwcbo'
p3899
I1
sS'random'
p3900
I14
sS'@alialifareedmc'
p3901
I1
sS'#ff'
p3902
I2
sS'#fb'
p3903
I5
sS'#turndown'
p3904
I1
sS'putting'
p3905
I17
sS'#comment'
p3906
I1
sS'#wanderlust'
p3907
I1
sS'entire'
p3908
I1
sS'@arobb12'
p3909
I1
sS'#healthy'
p3910
I22
sS'#tweetingduringthemeetingagain'
p3911
I1
sS'#hillsandshit'
p3912
I1
sS'havent'
p3913
I1
sS'#toogoodforyou'
p3914
I1
sS'@22_andyvu'
p3915
I1
sS'@hemingways_la'
p3916
I1
sS'supermarket...#yolo'
p3917
I1
sS'http://t.c\xe2\x80\xa6'
p3918
I2
sS'carlo'
p3919
I1
sS'#mcdonalds'
p3920
I1
sS'#oldman'
p3921
I9
sS'giving'
p3922
I7
sS'http://t.co/xljcqj2lrp'
p3923
I1
sS'@jeremylawrencee:'
p3924
I5
sS'payday'
p3925
I3
sS'http://t.co/i91arny21y'
p3926
I1
sS'pokai'
p3927
I1
sS'\xf0\x9f\x98\x82\xf0\x9f\x98\x82\xf0\x9f\x98\x82\xf0\x9f\x98\x82\xf0\x9f\x98\x82\xf0\x9f\x98\x82\xf0\x9f\x98\x82'
p3928
I1
sS'packing'
p3929
I1
sS'sing'
p3930
I2
sS'#youhavetounderstand'
p3931
I1
sS'face...#yolo'
p3932
I2
sS'32'
p3933
I2
sS'30'
p3934
I3
sS'honor'
p3935
I1
sS'#heavenhelpus'
p3936
I1
sS'teachers...#yolo'
p3937
I1
sS'#loves'
p3938
I1
sS'named'
p3939
I1
sS'language...#yolo'
p3940
I1
sS'private'
p3941
I1
sS'#beautiful'
p3942
I22
sS'..flower'
p3943
I1
sS'@angmlz:'
p3944
I1
sS'train'
p3945
I1
sS'prizes'
p3946
I4
sS'ashamed'
p3947
I1
sS'http://t.co/o027fsc2pd\xe2\x80\x9d'
p3948
I1
sS'billed'
p3949
I1
sS'tearing'
p3950
I1
sS'#instagirl'
p3951
I1
sS'account'
p3952
I1
sS'@girlposts'
p3953
I3
sS'@sannhak123:'
p3954
I1
sS'#turning'
p3955
I1
sS'didnt'
p3956
I3
sS'cappuccino'
p3957
I1
sS'#superficke'
p3958
I1
sS'@the_laurabailey'
p3959
I1
sS'building.'
p3960
I1
sS'@jessrowley'
p3961
I1
sS'daring'
p3962
I1
sS'http://t.co/skcenhbqff'
p3963
I1
sS'out!'
p3964
I1
sS'boxing'
p3965
I2
sS'\xf0\x9f\x99\x8f\xf0\x9f\x99\x8f\xf0\x9f\x99\x8f'
p3966
I3
sS'responsibilities'
p3967
I1
sS'#travel'
p3968
I5
sS'canfield'
p3969
I2
sS'profile'
p3970
I1
sS'awesome.'
p3971
I1
sS'@residcntevil:'
p3972
I1
sS'bone!'
p3973
I1
sS'http://t.co/b3rhh7e5iq'
p3974
I1
sS'frap'
p3975
I1
sS'cuddling'
p3976
I1
sS'lines'
p3977
I2
sS'#selfiesfornash'
p3978
I1
sS'http://t.co/gykr7yidsv'
p3979
I1
sS'#priceless'
p3980
I2
sS'#sojusunway'
p3981
I1
sS'horns'
p3982
I1
sS'charting'
p3983
I1
sS'bunch'
p3984
I2
sS'@lovelynae:'
p3985
I1
sS'le'
p3986
I3
sS'tsk'
p3987
I1
sS'la'
p3988
I1
sS'life\xf0\x9f\x91\x8c'
p3989
I1
sS'labor'
p3990
I1
sS'willing'
p3991
I1
sS't-shirts...#yolo'
p3992
I1
sS'#chocolatenachos'
p3993
I1
sS'dad'
p3994
I2
sS'#gogogo'
p3995
I2
sS'dat'
p3996
I2
sS'cutting'
p3997
I3
sS'@tm_arney'
p3998
I1
sS'blazing'
p3999
I1
sS'-\xe2\x80\xa6'
p4000
I1
sS'bridge.'
p4001
I1
sS'dreaming'
p4002
I1
sS'http://t.co/nr5lbyqrvs'
p4003
I1
sS'sweatshirt'
p4004
I9
sS'popping'
p4005
I1
sS'#enjoy'
p4006
I4
sS'arkansas'
p4007
I1
sS'purchased.'
p4008
I1
sS'math'
p4009
I2
sS'full....'
p4010
I1
sS'jessica'
p4011
I1
sS'#realslimshady'
p4012
I1
sS'yard'
p4013
I1
sS'#uniqlo'
p4014
I1
sS'him\xf0\x9f\x98\x82'
p4015
I1
sS'http://t.co/09rhmuhx48'
p4016
I1
sS'south'
p4017
I2
sS'\xf0\x9f\x98\x83\xf0\x9f\x98\x83'
p4018
I1
sS'#blessed'
p4019
I3
sS'hahahaha'
p4020
I2
sS'pgs'
p4021
I1
sS"love'"
p4022
I1
sS'love.'
p4023
I2
sS'annie_rose_is_a_penguin'
p4024
I1
sS'#mrk634'
p4025
I1
sS'bulldog'
p4026
I1
sS'completed'
p4027
I2
sS'nobody'
p4028
I1
sS'#vinefamous'
p4029
I1
sS'@gatalinaaa:'
p4030
I1
sS'ipad'
p4031
I1
sS'#ibiza'
p4032
I1
sS'jocks'
p4033
I1
sS'#globalwarming'
p4034
I1
sS'addicted\xf0\x9f\x98\xb3....'
p4035
I1
sS'#sum-ag'
p4036
I1
sS'http://t.co/9uvyqmuat6'
p4037
I1
sS'nope\xf0\x9f\x98\x90'
p4038
I1
sS'apparently'
p4039
I5
sS'#justwokeup'
p4040
I2
sS'#yesiusedyolobutyolo'
p4041
I1
sS'min'
p4042
I3
sS'#2cool4skool'
p4043
I1
sS'#ofcourseitsraining'
p4044
I1
sS'http://t.co/ubfbuh0w4i'
p4045
I1
sS'http://t.co/n0sq7z8ma7'
p4046
I1
sS'http://t.co/2oxnb8dqke\xe2\x80\x9d\xe2\x80\x9d'
p4047
I1
sS'http://t.co/9taxuvwru8'
p4048
I1
sS'#whatevs'
p4049
I1
sS'request'
p4050
I2
sS'#tarpeystyle'
p4051
I1
sS'#somuchswag'
p4052
I1
sS'#awesome'
p4053
I3
sS'normally'
p4054
I7
sS'#hammersmith'
p4055
I1
sS'area.'
p4056
I1
sS'nope.'
p4057
I1
sS'#xoxo'
p4058
I1
sS'#ylvis'
p4059
I2
sS'coloring'
p4060
I1
sS'@peoplemag'
p4061
I1
sS'#new\xe2\x80\xa6'
p4062
I1
sS'@artintrohw'
p4063
I1
sS'#tourlife'
p4064
I1
sS'xdd'
p4065
I9
sS'pull'
p4066
I1
sS'beat'
p4067
I1
sS'stripes'
p4068
I1
sS'bear'
p4069
I1
sS'#twerksomething'
p4070
I1
sS'#padova'
p4071
I1
sS'intersection...#yolo'
p4072
I1
sS'http://t.co/kyppsgh\xe2\x80\xa6'
p4073
I1
sS'anything.'
p4074
I2
sS'eyebrow'
p4075
I1
sS'calling'
p4076
I1
sS'http://t.co/bxwokrstd1'
p4077
I1
sS'amazing!'
p4078
I1
sS'#hashtag'
p4079
I3
sS'#pleasemakedairyfreephishfood'
p4080
I2
sS'#wolfgang'
p4081
I1
sS'\xe2\x9c\xa8melting'
p4082
I1
sS'#chevy'
p4083
I1
sS'@jovanykin'
p4084
I1
sS'#playlist'
p4085
I1
sS'day...getting'
p4086
I1
sS'week...'
p4087
I1
sS'ebola'
p4088
I1
sS'progress'
p4089
I1
sS'boundary'
p4090
I1
sS'@melanieees24:'
p4091
I1
sS'waifus.'
p4092
I1
sS'grass...#yolo'
p4093
I1
sS'walrus...#yolo'
p4094
I2
sS'http://t.co/rhgdfhuehn'
p4095
I1
sS'joke'
p4096
I3
sS'taking'
p4097
I20
sS'otherwise'
p4098
I1
sS'#rolex'
p4099
I4
sS'http://t.co/m8epnkxsyh'
p4100
I1
sS'laugh'
p4101
I2
sS'#boy'
p4102
I20
sS'done.'
p4103
I1
sS'gona'
p4104
I1
sS'pouring'
p4105
I1
sS'http://t.co/emb53vwian'
p4106
I1
sS"it's"
p4107
I26
sS'home!'
p4108
I1
sS'http://t.co/gk5wnvlrgb'
p4109
I1
sS'home.'
p4110
I1
sS"it'd"
p4111
I1
sS'fall/winter'
p4112
I1
sS'http://t.co/ymjcffw4ai'
p4113
I1
sS'n\xe2\x80\xa6'
p4114
I1
sS'essentially'
p4115
I1
sS'http://t.co/v7mbs1ia5w'
p4116
I1
sS'bulk'
p4117
I1
sS'finished'
p4118
I3
sS'#borvafc'
p4119
I1
sS'@bookieinsiders'
p4120
I1
sS'plain'
p4121
I1
sS'#pizza'
p4122
I1
sS'#blissfulness'
p4123
I1
sS'\xe2\x80\x9c@cbcsports:'
p4124
I1
sS'#realrecognisereal'
p4125
I1
sS'almost'
p4126
I8
sS'started.'
p4127
I1
sS'#todav\xc3\xadarecuerdocuandoandabachida'
p4128
I1
sS'@michael5sos'
p4129
I2
sS'though.'
p4130
I2
sS'abd_hdy'
p4131
I1
sS'ios'
p4132
I1
sS'fucker'
p4133
I1
sS'ion'
p4134
I1
sS'spitting'
p4135
I1
sS'sisters'
p4136
I1
sS'thought'
p4137
I2
sS'oops'
p4138
I3
sS'con'
p4139
I2
sS"wonder's"
p4140
I1
sS'stores'
p4141
I48
sS'@k19677747'
p4142
I1
sS'domestic'
p4143
I1
sS'lol!!'
p4144
I1
sS'@poetry4bitcoin:'
p4145
I1
sS'test.'
p4146
I2
sS'work.'
p4147
I3
sS'#mgm'
p4148
I1
sS'work!'
p4149
I1
sS'bench'
p4150
I1
sS'#brickmybutt'
p4151
I1
sS'natural...#yolo'
p4152
I3
sS'match'
p4153
I3
sS'http://t.co/q7gcmrhzr1'
p4154
I1
sS'#yoyo'
p4155
I1
sS'#champions'
p4156
I1
sS'http://t.co/2purthdmg1'
p4157
I1
sS'dryer'
p4158
I1
sS'hair\xe2\x80\x9d'
p4159
I1
sS'@evildemonfanny'
p4160
I1
sS'#hmmm'
p4161
I1
sS'@davidlelee'
p4162
I3
sS'like'
p4163
I39
sS'inviting'
p4164
I1
sS'crump...#yolo'
p4165
I1
sS'11pm'
p4166
I2
sS'admitted'
p4167
I1
sS'\xe2\x80\x9c@courtneysekeres:'
p4168
I1
sS'soft'
p4169
I1
sS'italian'
p4170
I1
sS'slip-n-slide'
p4171
I1
sS'hair'
p4172
I11
sS'http://t.co/e5onk9kaye'
p4173
I1
sS'proper'
p4174
I1
sS'@nashgrier'
p4175
I3
sS'happens'
p4176
I1
sS'trust'
p4177
I1
sS'#instalove'
p4178
I1
sS'@merlotgirl'
p4179
I1
sS'#jadine'
p4180
I1
sS'http://t.co/pvocwwws\xe2\x80\xa6'
p4181
I1
sS'46.5%'
p4182
I1
sS'@thatfoomoises'
p4183
I1
sS'screwed'
p4184
I1
sS'@gough_parker:'
p4185
I2
sS'@thenemster_:'
p4186
I1
sS'&amp;'
p4187
I25
sS'chain.'
p4188
I1
sS'weisht'
p4189
I1
sS'#skipping'
p4190
I2
sS'justin'
p4191
I1
sS'#badairportfood'
p4192
I1
sS'6am'
p4193
I1
sS'flatmates'
p4194
I1
sS'!!'
p4195
I1
sS'socks'
p4196
I2
sS'#ijusthadsex'
p4197
I1
sS'vegetables'
p4198
I1
sS'#feelold'
p4199
I1
sS'seats...#yolo'
p4200
I1
sS'#atleastididntquoteher'
p4201
I1
sS'buy'
p4202
I7
sS'#voteyes??'
p4203
I1
sS'bus'
p4204
I2
sS'coke'
p4205
I2
sS'http://t.co/nbuizknx4g'
p4206
I1
sS'plague'
p4207
I1
sS'bug'
p4208
I1
sS'wish'
p4209
I1
sS'flip'
p4210
I2
sS'@theghassassin:'
p4211
I3
sS'#vchat'
p4212
I1
sS'@amibug'
p4213
I1
sS'pic'
p4214
I1
sS'pie'
p4215
I1
sS'pig'
p4216
I1
sS'#forabetternz'
p4217
I1
sS'@nickelback.'
p4218
I1
sS'shooting'
p4219
I1
sS'campus'
p4220
I3
sS'http://t.co/awqsqdbic6'
p4221
I1
sS'\xe2\x80\x9c@mattchupp:'
p4222
I1
sS'@stevensmyle_'
p4223
I1
sS'47'
p4224
I1
sS'45'
p4225
I1
sS'\xf0\x9f\x98\x82\xf0\x9f\x98\xa9\xf0\x9f\x98\xa9\xf0\x9f\x98\x82'
p4226
I1
sS'@gr00vygrant'
p4227
I1
sS'dresser'
p4228
I1
sS"#don'tgiveafuck"
p4229
I1
sS'indeed!'
p4230
I1
sS'#marykay'
p4231
I1
sS'goin'
p4232
I1
sS'-unofficial'
p4233
I1
sS'\xe2\x80\x94'
p4234
I2
sS'kardashian'
p4235
I1
sS'oral'
p4236
I1
sS'@teextranocarino'
p4237
I1
sS'kain'
p4238
I1
sS'shots!!!'
p4239
I1
sS'http://t.co/jpylzgccjq'
p4240
I1
sS'@bawdy'
p4241
I1
sS'news.'
p4242
I1
sS'#blazeit'
p4243
I1
sS'ever!'
p4244
I1
sS'sleep'
p4245
I11
sS"tonight's"
p4246
I1
sS'feeding'
p4247
I1
sS'@manofthyear:'
p4248
I1
sS'tweet'
p4249
I23
sS'#neck'
p4250
I1
sS'@owbaekyeol'
p4251
I1
sS'regrets'
p4252
I1
sS'movies.'
p4253
I1
sS'rise'
p4254
I1
sS'every'
p4255
I16
sS'toes...#yolo'
p4256
I2
sS'@jodi_serrano'
p4257
I1
sS'http://t.co/wncqfx6ytt'
p4258
I1
sS'school'
p4259
I28
sS'#world'
p4260
I4
sS'#ifeelbadtho'
p4261
I1
sS'http://t.co/5y6w1pw9ti'
p4262
I1
sS'#tattoo'
p4263
I1
sS'street'
p4264
I6
sS'@1_martinmiller'
p4265
I1
sS'blue'
p4266
I1
sS'hide'
p4267
I1
sS'sue...#yolo'
p4268
I1
sS'injections'
p4269
I1
sS'shattered'
p4270
I1
sS'dreams..'
p4271
I1
sS'tons!'
p4272
I1
sS'stevie'
p4273
I1
sS'changed'
p4274
I1
sS'#uptown'
p4275
I1
sS'rt18'
p4276
I1
sS'changes'
p4277
I2
sS'stray'
p4278
I1
sS'#doitforthevine...'
p4279
I1
sS'alligator...#yolo'
p4280
I1
sS'would'
p4281
I7
sS'http://t.co/pffoirksxg'
p4282
I1
sS'asses'
p4283
I1
sS'spike'
p4284
I1
sS'#selfies'
p4285
I1
sS'#livingontheroad'
p4286
I1
sS'phone'
p4287
I2
sS'connecticut'
p4288
I2
sS'excellent'
p4289
I1
sS'intrams'
p4290
I1
sS'must'
p4291
I1
sS'shoot'
p4292
I3
sS'#onlythegooddieyoung'
p4293
I1
sS'join'
p4294
I8
sS'mc'
p4295
I1
sS'mi'
p4296
I2
sS'@mmexperience:'
p4297
I1
sS'girls.'
p4298
I2
sS'@hanna_frances'
p4299
I1
sS'mr'
p4300
I1
sS'@micromax_mobile'
p4301
I1
sS'#brolife'
p4302
I4
sS'#doubleselfie'
p4303
I1
sS'keep'
p4304
I6
sS'end'
p4305
I2
sS'#christmas\xe2\x80\xa6'
p4306
I1
sS'eng'
p4307
I1
sS'sitting'
p4308
I9
sS'#uniteblue'
p4309
I1
sS'buns'
p4310
I1
sS'writers'
p4311
I1
sS'it!!'
p4312
I1
sS'order?...#yolo'
p4313
I1
sS'#beer'
p4314
I2
sS'http://t.co/q5zqjxonyd'
p4315
I1
sS'jumping'
p4316
I1
sS'salsa'
p4317
I2
sS'http://t.co/fzl5mjbpwx'
p4318
I1
sS'securitah'
p4319
I1
sS'@petersenkurt\xe2\x80\xa6'
p4320
I1
sS'danny'
p4321
I2
sS'gluing'
p4322
I2
sS'#kensalrise'
p4323
I1
sS'#totallyfacetious'
p4324
I1
sS'@hs_adkins'
p4325
I1
sS'#mixtaculas'
p4326
I1
sS'@davidlopezvine:'
p4327
I6
sS'#rinascente'
p4328
I1
sS'#speeddating'
p4329
I1
sS'#softgrunge'
p4330
I1
sS'wednesday.'
p4331
I2
sS'sickle'
p4332
I1
sS'http://t.co/klgexcd345'
p4333
I1
sS'short\xc2\xa0for-'
p4334
I1
sS'ima'
p4335
I1
sS'40%'
p4336
I1
sS'writing'
p4337
I1
sS'terrorists.'
p4338
I2
sS'@guelo0316:'
p4339
I1
sS'#summer\xe2\x80\xa6'
p4340
I1
sS'rental'
p4341
I1
sS'bouta'
p4342
I1
sS'@mvdeynde'
p4343
I1
sS'@jtimberlake'
p4344
I1
sS'wheel'
p4345
I1
sS'@amzarul'
p4346
I1
sS'good\xe2\x80\xa6'
p4347
I1
sS'joined'
p4348
I4
sS'sears'
p4349
I1
sS'ancelotti'
p4350
I1
sS'language...'
p4351
I1
sS'driving'
p4352
I3
sS'sang'
p4353
I2
sS'#ootd'
p4354
I3
sS'god'
p4355
I4
sS'day.'
p4356
I9
sS'laid'
p4357
I1
sS'got'
p4358
I32
sS'birthday!!!!'
p4359
I1
sS'day!'
p4360
I2
sS'photo...but'
p4361
I1
sS'rail'
p4362
I1
sS'(stupid'
p4363
I1
sS'#cuba'
p4364
I1
sS'free'
p4365
I7
sS'#yolo\xe2\x80\x9d'
p4366
I3
sS'http://t.co/63ase9hyyn'
p4367
I1
sS'wanted'
p4368
I4
sS'@pokerfansyes:'
p4369
I1
sS'#yolo\xe2\x80\xa6'
p4370
I13
sS'days'
p4371
I5
sS'@twins'
p4372
I1
sS'@dearxoch_'
p4373
I1
sS'#y\xe2\x80\xa6'
p4374
I1
sS'already'
p4375
I10
sS'too!'
p4376
I1
sS'too.'
p4377
I1
sS'#ooookillem'
p4378
I1
sS'http://t.co/82kduuplrv'
p4379
I1
sS'\xf0\x9f\x91\xa8'
p4380
I1
sS'primark'
p4381
I1
sS'--ig'
p4382
I1
sS'top'
p4383
I6
sS'ton'
p4384
I1
sS'\xf0\x9f\x91\x8d'
p4385
I1
sS'tod'
p4386
I1
sS'took'
p4387
I10
sS'@amazonin'
p4388
I1
sS'@blakehibdon'
p4389
I1
sS'roles'
p4390
I2
sS'nominate'
p4391
I1
sS'shore....'
p4392
I2
sS'classes'
p4393
I3
sS'#quattro'
p4394
I4
sS'donkey'
p4395
I1
sS'handkerchief'
p4396
I1
sS'@tripthestation:'
p4397
I1
sS'#greenday'
p4398
I2
sS'raw'
p4399
I2
sS'rat'
p4400
I1
sS'rap'
p4401
I2
sS'swager!!!!'
p4402
I1
sS'ocean'
p4403
I1
sS'seminar'
p4404
I1
sS'$7400?#yolo'
p4405
I1
sS'#buildyourdream'
p4406
I1
sS'#throwback'
p4407
I1
sS'though'
p4408
I9
sS'@sippinslimfast:'
p4409
I2
sS'#canttakeseriously'
p4410
I1
sS'@riotgames'
p4411
I1
sS'tsk.'
p4412
I1
sS'hortons'
p4413
I2
sS'#cool'
p4414
I1
sS'parting'
p4415
I1
sS'glow'
p4416
I1
sS'rogers'
p4417
I1
sS'but....oh'
p4418
I1
sS'yano'
p4419
I1
sS'@bobinman'
p4420
I1
sS'wild'
p4421
I1
sS'home...#yolo'
p4422
I1
sS'queen'
p4423
I1
sS'#llamas'
p4424
I1
sS'#reputation'
p4425
I1
sS'#sweatshop'
p4426
I1
sS'........#brody?'
p4427
I1
sS'crossfit'
p4428
I2
sS'shorts.'
p4429
I2
sS'gioia'
p4430
I1
sS'#holainstagram'
p4431
I1
sS'chipotle'
p4432
I1
sS'it...#yolo'
p4433
I3
sS'watch'
p4434
I4
sS'wedding'
p4435
I2
sS'report'
p4436
I1
sS'https://t.co/5hb5ag9c2n'
p4437
I1
sS'licking'
p4438
I2
sS'shots'
p4439
I1
sS'#flyer'
p4440
I1
sS'new.'
p4441
I1
sS'@pierressey'
p4442
I1
sS'http://t.co/4uxt7rftld'
p4443
I1
sS'demented'
p4444
I2
sS'http://t.co/spjuuqymhs'
p4445
I1
sS'noodles'
p4446
I1
sS'face.'
p4447
I1
sS'pissed!'
p4448
I1
sS'mud'
p4449
I1
sS'finger'
p4450
I3
sS'hopefully'
p4451
I1
sS'biomechanics'
p4452
I1
sS'#yw&amp;f'
p4453
I1
sS'however'
p4454
I1
sS'wear'
p4455
I5
sS'#fries'
p4456
I1
sS'improve'
p4457
I1
sS'#mind'
p4458
I1
sS'birthday!!'
p4459
I3
sS'umbrella...#yolo'
p4460
I2
sS'#myjustification'
p4461
I1
sS'players'
p4462
I1
sS'games'
p4463
I2
sS'#goforit'
p4464
I2
sS'@eurghoutside:'
p4465
I1
sS'#haha'
p4466
I1
sS'normcore'
p4467
I1
sS'day!!!!'
p4468
I1
sS'#baby'
p4469
I1
sS'@katiemblacker'
p4470
I1
sS'bathroom'
p4471
I6
sS'http://t.co/9drbsixnci'
p4472
I1
sS'#vinescope'
p4473
I1
sS'beer'
p4474
I3
sS'@anyaaargh:'
p4475
I1
sS'#beingsassy'
p4476
I1
sS'#brentonianforlyf'
p4477
I1
sS'#framboise'
p4478
I1
sS'thing...'
p4479
I1
sS'#nightlife'
p4480
I1
sS'#brotherbike'
p4481
I1
sS'catch'
p4482
I2
sS'@mikee_kennedyy'
p4483
I1
sS'#senioryear'
p4484
I1
sS'@nobrublack'
p4485
I1
sS'friday!'
p4486
I2
sS'#fitnation'
p4487
I1
sS'working?'
p4488
I1
sS'#regram'
p4489
I2
sS'antidepressants'
p4490
I1
sS'#clutch'
p4491
I2
sS'chipper'
p4492
I1
sS'social'
p4493
I1
sS'fridays'
p4494
I2
sS'#tagsforlikes'
p4495
I1
sS'#ebay'
p4496
I1
sS'http://t.co/ttkj0aeo0h'
p4497
I1
sS'#fearless'
p4498
I1
sS'@cat_murray'
p4499
I1
sS'mother'
p4500
I3
sS'#dailyreminder'
p4501
I1
sS'them...#yolo'
p4502
I1
sS'grader'
p4503
I1
sS'break.'
p4504
I4
sS'#imonaboat'
p4505
I1
sS'@melakfromthe313'
p4506
I1
sS'brigham'
p4507
I1
sS'5p'
p4508
I2
sS'mansion!'
p4509
I1
sS'teenager'
p4510
I2
sS'gave'
p4511
I2
sS'breaks'
p4512
I1
sS'donar'
p4513
I1
sS'league.'
p4514
I1
sS'gift'
p4515
I1
sS'#nyttuleepelkk\xc3\xa4\xc3\xa4hyv\xc3\xa4\xc3\xa4\xe2\x80\xa6'
p4516
I1
sS'51'
p4517
I1
sS'50'
p4518
I1
sS'mustache...#yolo'
p4519
I2
sS'petting'
p4520
I1
sS'hs.'
p4521
I4
sS'#quepolodeciryolo'
p4522
I1
sS'escape'
p4523
I1
sS'tutorial'
p4524
I1
sS'pretzels'
p4525
I1
sS'vivere\xe2\x80\x94the'
p4526
I1
sS'ice'
p4527
I9
sS'#badspanish'
p4528
I1
sS'everything'
p4529
I7
sS'attack.'
p4530
I1
sS'bbbbuuuttt'
p4531
I1
sS'freshers'
p4532
I1
sS'420'
p4533
I1
sS'nwts'
p4534
I1
sS'deleted'
p4535
I3
sS'http://t.co/v4u9aa2mau'
p4536
I1
sS'club.'
p4537
I1
sS'#jesuloba'
p4538
I1
sS'furtado'
p4539
I1
sS'trustworthy'
p4540
I5
sS'dinner'
p4541
I3
sS'plus'
p4542
I2
sS'#lmao'
p4543
I1
sS'#vivamexico'
p4544
I1
sS'http://t.co/frnwceffjj'
p4545
I1
sS'haha!lol'
p4546
I1
sS'legs...#yolo'
p4547
I1
sS'virgin'
p4548
I1
sS'pool...#yolo'
p4549
I2
sS'purposely'
p4550
I1
sS'head'
p4551
I7
sS'heat'
p4552
I1
sS'hear'
p4553
I2
sS'http://t.co/mzi0czqhti'
p4554
I1
sS'soju'
p4555
I1
sS'rehab!'
p4556
I1
sS'@lngerst'
p4557
I1
sS'check'
p4558
I4
sS'#summer'
p4559
I1
sS'til'
p4560
I1
sS'tim'
p4561
I3
sS'setting'
p4562
I3
sS'tie'
p4563
I1
sS'nt'
p4564
I2
sS'panay'
p4565
I2
sS'today...'
p4566
I1
sS'picture'
p4567
I14
sS'superheroes.'
p4568
I1
sS'longer'
p4569
I1
sS'#birthday'
p4570
I3
sS'#early'
p4571
I1
sS'http://t.co/csuobbg3ms'
p4572
I1
sS':))'
p4573
I4
sS'neighbors'
p4574
I1
sS'snid'
p4575
I1
sS'rob'
p4576
I1
sS'focus'
p4577
I1
sS'karat'
p4578
I1
sS'#gordita'
p4579
I1
sS'@snidthekid:'
p4580
I2
sS'day...'
p4581
I1
sS'http://t.co/xaz4r6gzww'
p4582
I1
sS'#partythings'
p4583
I1
sS'http://t.co/wlj1p5lhim'
p4584
I1
sS'post!'
p4585
I1
sS'#change'
p4586
I1
sS'one.'
p4587
I2
sS'#fuckedupfuture'
p4588
I1
sS'cool'
p4589
I4
sS'married.'
p4590
I3
sS'best.'
p4591
I1
sS'level'
p4592
I7
sS'peeps'
p4593
I1
sS'brother'
p4594
I1
sS'#funnyvine'
p4595
I1
sS'http://t.co/uby8tb7bpj'
p4596
I1
sS'says'
p4597
I6
sS'trend'
p4598
I2
sS'ltp)'
p4599
I1
sS'skittle...#yolo'
p4600
I1
sS'hair!'
p4601
I1
sS'port'
p4602
I1
sS'life...'
p4603
I1
sS'exam.'
p4604
I1
sS'http://t.co/wekjmgorhs'
p4605
I8
sS'http://t.co/djujhqz0r9'
p4606
I1
sS'goes'
p4607
I3
sS'http://t.co/mklised5s9'
p4608
I1
sS"luby's"
p4609
I1
sS'health.'
p4610
I1
sS'hair~'
p4611
I1
sS'http://t.co/kjybkg4poh'
p4612
I1
sS'hairs'
p4613
I1
sS'water'
p4614
I2
sS'michi'
p4615
I1
sS'crippled'
p4616
I1
sS'http://t.co/calyqu0tyu'
p4617
I1
sS'dublin'
p4618
I2
sS'here!!!'
p4619
I1
sS'exams'
p4620
I2
sS'#nofear'
p4621
I1
sS'weird'
p4622
I1
sS'dumb'
p4623
I1
sS'myself.'
p4624
I1
sS'#scream'
p4625
I1
sS'\xf0\x9f\x98\x8d\xf0\x9f\x98\x8d\xf0\x9f\x98\x8d\xf0\x9f\x98\x8d\xf0\x9f\x98\x8d\xf0\x9f\x98\x8d'
p4626
I1
sS'ironically'
p4627
I2
sS'#killer'
p4628
I1
sS'sports'
p4629
I1
sS'andy'
p4630
I1
sS'iphone'
p4631
I2
sS'memory'
p4632
I1
sS'msg'
p4633
I1
sS'prep'
p4634
I2
sS'today'
p4635
I24
sS'lemme'
p4636
I1
sS'@p_mariee20'
p4637
I2
sS'cashier'
p4638
I1
sS"'za"
p4639
I1
sS'swaghic'
p4640
I2
sS'#makemoney'
p4641
I3
sS'http://t.co/z8epkradgc'
p4642
I1
sS'#milf'
p4643
I2
sS'wrong?'
p4644
I1
sS'@erbe88'
p4645
I1
sS'nursing'
p4646
I1
sS'stream'
p4647
I1
sS'#projectxparty'
p4648
I2
sS'#vegas'
p4649
I5
sS'http://t.co/sedmtieoy7'
p4650
I1
sS'\xf0\x9f\x99\x8c\xf0\x9f\x99\x8c\xf0\x9f\x99\x8c\xf0\x9f\x98\x8d\xf0\x9f\x98\x8d\xf0\x9f\x98\x8d\xf0\x9f\x98\x8d'
p4651
I1
sS'hihi'
p4652
I1
sS'\xf0\x9f\x98\x9d\xf0\x9f\x98\xb1\xf0\x9f\x98\xa9\xf0\x9f\x98\x9b'
p4653
I1
sS'$100'
p4654
I1
sS'levi'
p4655
I1
sS'birthday'
p4656
I6
sS'#halloweenparty'
p4657
I2
sS'#vip'
p4658
I1
sS'#vih'
p4659
I2
sS'http://t.co/t6klsg7t6u'
p4660
I1
sS'reaper'
p4661
I1
sS'#sorrynotsorry'
p4662
I2
sS'midnight'
p4663
I3
sS'@saskiasordon:'
p4664
I2
sS"he's"
p4665
I1
sS'scrolling'
p4666
I1
sS'#like'
p4667
I2
sS'http://t.co/u9wmt10oa9'
p4668
I1
sS'rosado'
p4669
I1
sS'\xf0\x9f\x98\x82\xf0\x9f\x98\x82'
p4670
I6
sS'#freshaaaass'
p4671
I1
sS'happened'
p4672
I5
sS'lonely'
p4673
I1
sS'http://t.co/34taajqg3l'
p4674
I1
sS'lukes'
p4675
I1
sS'http://t.co/kcygumiimk'
p4676
I1
sS'term'
p4677
I1
sS'name'
p4678
I3
sS'shiiiiiiit'
p4679
I1
sS'http://t.co/dciq5kjqsm'
p4680
I1
sS'button...#yolo'
p4681
I1
sS'chapel!!'
p4682
I1
sS'#money'
p4683
I1
sS"shouldn't"
p4684
I1
sS'hacked'
p4685
I1
sS'100x'
p4686
I1
sS'sober.'
p4687
I1
sS'http://t.co/wg62jbekjx'
p4688
I1
sS'skydive!'
p4689
I1
sS'#single'
p4690
I2
sS'boobs'
p4691
I1
sS'http://t.co/oopwayhtex'
p4692
I1
sS'coppers!...#yolo'
p4693
I2
sS'http://t.co/afco6fieoh'
p4694
I1
sS'@pewdiepie'
p4695
I5
sS'#zerocare'
p4696
I2
sS'yup'
p4697
I1
sS'100%'
p4698
I3
sS'#funny'
p4699
I3
sS'calories'
p4700
I1
sS'turn'
p4701
I1
sS'place'
p4702
I3
sS'yul'
p4703
I1
sS'1000'
p4704
I1
sS'sanchez'
p4705
I1
sS'@maddiequevedo:'
p4706
I1
sS'coming'
p4707
I6
sS'knock-knock'
p4708
I1
sS'cop?'
p4709
I1
sS'iam'
p4710
I2
sS'surveys'
p4711
I2
sS'#iraqfriends'
p4712
I48
sS'district'
p4713
I1
sS'#vaimokuinprinsessa'
p4714
I1
sS'@amymulan'
p4715
I1
sS'plastic'
p4716
I2
sS'reppin'
p4717
I1
sS'#fuckofftequila'
p4718
I1
sS'returns'
p4719
I1
sS'evaaaaa!'
p4720
I1
sS'@stick_arxund'
p4721
I1
sS'white'
p4722
I3
sS'hug'
p4723
I1
sS'@xoxolexiiboo_'
p4724
I1
sS'morrow.'
p4725
I1
sS'copu'
p4726
I1
sS'stylinson'
p4727
I1
sS'#quoteoftheday'
p4728
I1
sS'clt.'
p4729
I1
sS'subbed'
p4730
I1
sS'return!'
p4731
I1
sS'wide'
p4732
I1
sS'#pedamil'
p4733
I1
sS'lmao'
p4734
I6
sS'lobbyist.'
p4735
I1
sS'@littlesmallen:'
p4736
I1
sS'@sapientnitro:'
p4737
I1
sS'nehuen'
p4738
I1
sS'cards'
p4739
I1
sS'poisoning'
p4740
I2
sS'#exclusive'
p4741
I1
sS'chloe'
p4742
I2
sS'michele'
p4743
I1
sS'#spotify'
p4744
I1
sS'\xf0\x9f\x99\x8c\xf0\x9f\x92\xb0'
p4745
I1
sS'worst'
p4746
I1
sS'marathon'
p4747
I2
sS'\xf0\x9f\x8e\xb2'
p4748
I1
sS'@gognaanilgogna'
p4749
I2
sS'benis'
p4750
I1
sS'#oops'
p4751
I2
sS'#frenchie'
p4752
I1
sS'ideas'
p4753
I1
sS'#rough'
p4754
I1
sS'late.'
p4755
I1
sS'http://t.co/n8yh5tw0x6'
p4756
I1
sS'@andrearussett:'
p4757
I2
sS'#overton'
p4758
I1
sS'sure'
p4759
I8
sS'multiple'
p4760
I48
sS'lollll'
p4761
I1
sS'ukrainian'
p4762
I1
sS'falls'
p4763
I1
sS'fck'
p4764
I1
sS'http://t.co/os3esk0opn'
p4765
I1
sS'#isis'
p4766
I2
sS'foot'
p4767
I1
sS'later'
p4768
I2
sS'hungry'
p4769
I2
sS'http://t.co/d92fxeipey'
p4770
I1
sS'senior'
p4771
I1
sS'jizz'
p4772
I1
sS'radiation.'
p4773
I1
sS'http://t.co/owhjdxoif1'
p4774
I1
sS'unfortunately.'
p4775
I1
sS'#chilled'
p4776
I1
sS'woop'
p4777
I1
sS'state'
p4778
I1
sS'http://t.co/hluub7ld2i'
p4779
I1
sS'#whywetravel'
p4780
I1
sS'#instafood'
p4781
I2
sS'@vl0pez:'
p4782
I1
sS'\xe2\x80\x9c@bradyneaves:'
p4783
I1
sS'#creepy'
p4784
I1
sS'dye'
p4785
I1
sS'#purple'
p4786
I1
sS'(y)'
p4787
I1
sS'naked'
p4788
I2
sS'#larry'
p4789
I1
sS'unibrow'
p4790
I3
sS'pants'
p4791
I3
sS'http://t.co/nwjo6wczx0'
p4792
I1
sS'picnic'
p4793
I1
sS'#whiskey'
p4794
I1
sS'college'
p4795
I9
sS'#notgood'
p4796
I1
sS'ignores'
p4797
I1
sS'parking'
p4798
I5
sS'#1'
p4799
I1
sS'ways'
p4800
I1
sS'review'
p4801
I2
sS'-chinese'
p4802
I1
sS'outside'
p4803
I4
sS'whatever.'
p4804
I1
sS'cafe.'
p4805
I2
sS'rumours'
p4806
I1
sS'25'
p4807
I1
sS'#d'
p4808
I1
sS'guitar'
p4809
I2
sS'#x'
p4810
I1
sS'\xe2\x99\xa5i\xe2\x99\xa5s\xe2\x99\xa5r\xe2\x99\xa5a\xe2\x99\xa5e\xe2\x99\xa5l\xe2\x99\xa5'
p4811
I1
sS'birfdayy!'
p4812
I1
sS'@olgitababiee'
p4813
I1
sS'come'
p4814
I7
sS'#coffeelife'
p4815
I1
sS'tommorow.'
p4816
I48
sS'#pureshit'
p4817
I1
sS'way.'
p4818
I1
sS'http://t.co/hhqwrjmfdr'
p4819
I1
sS'vegas_yz'
p4820
I1
sS'duty'
p4821
I1
sS'#bovids'
p4822
I1
sS'@zexter4'
p4823
I1
sS'65'
p4824
I1
sS'#whoswithme'
p4825
I1
sS'polo'
p4826
I1
sS'poll'
p4827
I1
sS'#tmrstillgotcamp\xe2\x80\xa6'
p4828
I1
sS'hardly'
p4829
I1
sS'500'
p4830
I2
sS'simeone'
p4831
I1
sS'tbh!'
p4832
I1
sS'http://t.co/eiavtoqswf'
p4833
I1
sS'champions'
p4834
I1
sS'case'
p4835
I3
sS'@charliejellytot'
p4836
I1
sS'caucasians'
p4837
I1
sS'@roshamb0:'
p4838
I1
sS'#abkc'
p4839
I1
sS'cash'
p4840
I2
sS'life!'
p4841
I2
sS'life.'
p4842
I2
sS'http://t.co/onhecuybli'
p4843
I1
sS'it.'
p4844
I20
sS'download:'
p4845
I8
sS'party...#yolo'
p4846
I1
sS'someone'
p4847
I8
sS'#baldgehenmirdiezeichenaus'
p4848
I1
sS'wwekend'
p4849
I1
sS'granted'
p4850
I1
sS'10:30'
p4851
I1
sS'reminded'
p4852
I1
sS'marys'
p4853
I1
sS'macaroni'
p4854
I1
sS'reminder'
p4855
I1
sS'#alcohol'
p4856
I1
sS'events'
p4857
I1
sS'week'
p4858
I8
sS'#piercings'
p4859
I1
sS'#ready'
p4860
I1
sS'nites.'
p4861
I1
sS'weed'
p4862
I4
sS'driven'
p4863
I1
sS'statutory'
p4864
I1
sS'changing'
p4865
I2
sS'@pebble'
p4866
I1
sS'overwhelmed.'
p4867
I1
sS'revolution:'
p4868
I1
sS'shift.'
p4869
I1
sS'without'
p4870
I3
sS'@argelinooo:'
p4871
I1
sS'#army'
p4872
I1
sS'anyways.'
p4873
I2
sS'bite...#yolo'
p4874
I1
sS'violent'
p4875
I1
sS'kill'
p4876
I2
sS'spewed'
p4877
I1
sS'anyways!'
p4878
I1
sS'blow'
p4879
I1
sS'@simonjagassar'
p4880
I1
sS'@juliancamarena'
p4881
I1
sS'seems'
p4882
I2
sS'#yes'
p4883
I1
sS'lets'
p4884
I3
sS'happiness:'
p4885
I1
sS'#livinglife'
p4886
I1
sS'#freeeeeeeeee'
p4887
I1
sS'@jblnger'
p4888
I1
sS'schedules'
p4889
I2
sS'sasquatch'
p4890
I1
sS'accepted'
p4891
I1
sS'action!'
p4892
I1
sS'patrick'
p4893
I1
sS'all.'
p4894
I1
sS'tower'
p4895
I3
sS'nigga!!'
p4896
I1
sS'#nestholma'
p4897
I2
sS'pacific'
p4898
I1
sS'http://t.co/zuvhsgdtum'
p4899
I1
sS'ibuprofen'
p4900
I1
sS'#greenwall'
p4901
I1
sS'provided'
p4902
I1
sS'mood'
p4903
I1
sS'http://t.co/vyigwoqodw'
p4904
I1
sS'nails'
p4905
I3
sS'skrillex'
p4906
I1
sS'weirdest'
p4907
I1
sS'http://t.co/jyeuehj72m'
p4908
I1
sS'@brieeex0:'
p4909
I9
sS'http://t.co/qkliqqqvwh'
p4910
I1
sS'ok'
p4911
I2
sS'oh'
p4912
I11
sS'og'
p4913
I1
sS'stop.'
p4914
I2
sS'@kianafoote'
p4915
I1
sS'oz'
p4916
I1
sS'ladies'
p4917
I6
sS'everyone'
p4918
I3
sS'sx_arman'
p4919
I1
sS'energy'
p4920
I1
sS'ehh'
p4921
I1
sS'#buyingmoney'
p4922
I1
sS'grunge'
p4923
I1
sS'kittens'
p4924
I1
sS'http://t.co/ov0eeb4lzy\xe2\x80\x9d'
p4925
I1
sS'@jamiehas'
p4926
I1
sS'it?!'
p4927
I1
sS'#shades'
p4928
I9
sS'bull.'
p4929
I1
sS'eh.'
p4930
I1
sS'@iseymore_buts'
p4931
I1
sS'hw.'
p4932
I1
sS'toilet'
p4933
I1
sS'minneapolis'
p4934
I1
sS'9/19/2014'
p4935
I1
sS'#entry'
p4936
I2
sS'incorrect'
p4937
I1
sS"@harto's"
p4938
I1
sS'@grandxsupreme:'
p4939
I1
sS'trash'
p4940
I1
sS'http://t.co/o6sd1xs86x'
p4941
I1
sS'winking'
p4942
I2
sS'@bowbunny342'
p4943
I1
sS'http://t.co/0oxw9qd3tp'
p4944
I1
sS'@yomanroop'
p4945
I1
sS'@devoncook6'
p4946
I1
sS'finals'
p4947
I1
sS'psychology'
p4948
I1
sS'booked'
p4949
I1
sS'http://t.co/951cbcbjq7'
p4950
I1
sS'wifi'
p4951
I1
sS'#thug'
p4952
I1
sS'h18bd'
p4953
I1
sS'#gostubyourtoe'
p4954
I1
sS'http://t.co/codtwfpzmi'
p4955
I1
sS'#fomal'
p4956
I1
sS"ad.'"
p4957
I1
sS'http://t.co/ocn5jvfjtk'
p4958
I1
sS'@abigail_soprano'
p4959
I2
sS'follow'
p4960
I7
sS'decisions'
p4961
I1
sS'mooning'
p4962
I1
sS'apartment'
p4963
I1
sS'sparkling'
p4964
I1
sS'dairy'
p4965
I2
sS'shots)'
p4966
I1
sS'mom...#yolo'
p4967
I1
sS'woman'
p4968
I1
sS'worse'
p4969
I1
sS'far'
p4970
I3
sS'@helenayates:'
p4971
I1
sS'fat'
p4972
I3
sS'dis?'
p4973
I1
sS'fan'
p4974
I1
sS'fab'
p4975
I1
sS'ticket'
p4976
I3
sS'fag'
p4977
I1
sS'sentimental'
p4978
I1
sS'http://t.co/2bkbdenuou'
p4979
I6
sS'#bahay'
p4980
I1
sS'9:20'
p4981
I1
sS'#andochida'
p4982
I1
sS'#great'
p4983
I1
sS'http://t.co/ihxlzmseed'
p4984
I2
sS'#awkward'
p4985
I1
sS'tea'
p4986
I1
sS'#tuesday'
p4987
I2
sS'synergy'
p4988
I1
sS'haah'
p4989
I1
sS'fun...#yolo'
p4990
I2
sS'http://t.co/cial7jjysd'
p4991
I1
sS'functioning'
p4992
I1
sS'@jguajardo6:'
p4993
I2
sS'sum'
p4994
I1
sS'hashtag....'
p4995
I1
sS'@moogeypoogey:'
p4996
I1
sS'#5dolla'
p4997
I3
sS'ear...#yolo'
p4998
I1
sS'tags'
p4999
I1
sS'http://t.co/4yhafbkqg1'
p5000
I2
sS'@laurenevxns'
p5001
I2
sS'@darah_lara'
p5002
I2
sS'#engineerswag'
p5003
I1
sS'#zipline'
p5004
I2
sS'directions'
p5005
I1
sS'@onedirection'
p5006
I1
sS'misinterpret'
p5007
I1
sS'cheese!'
p5008
I1
sS'milkshake'
p5009
I1
sS'kids...#yolo'
p5010
I1
sS'suddenly'
p5011
I1
sS'semester'
p5012
I2
sS'\xe2\x88\x9e'
p5013
I1
sS'clifford'
p5014
I3
sS'dgaf'
p5015
I1
sS'#nerdalert:'
p5016
I2
sS"derek's"
p5017
I1
sS'always!'
p5018
I1
sS'http://t.co/knaom8thfa'
p5019
I1
sS'#sweg'
p5020
I5
sS'shits'
p5021
I1
sS'schedules..'
p5022
I1
sS'branded'
p5023
I1
sS'knows'
p5024
I1
sS'grabbing'
p5025
I1
sS'basically'
p5026
I1
sS'@wesezu'
p5027
I3
sS'#sundayfunday'
p5028
I2
sS'glad'
p5029
I2
sS'market.'
p5030
I1
sS'#elcambioesbueno'
p5031
I1
sS'#ballout'
p5032
I2
sS'wayne\xf0\x9f\x92\x9c'
p5033
I1
sS'#yoloalways'
p5034
I1
sS'h/t'
p5035
I1
sS'http://t.co/qqdrj6nagb'
p5036
I1
sS'#gethip'
p5037
I3
sS'#gangnamstyle'
p5038
I1
sS'jokes...#yolo'
p5039
I1
sS'matchmaking'
p5040
I1
sS'#braveheart'
p5041
I1
sS'salted'
p5042
I1
sS'#commute'
p5043
I1
sS'#musiclife'
p5044
I2
sS'goal'
p5045
I2
sS'http://t.co/cygprxzgmk'
p5046
I1
sS'rather'
p5047
I1
sS'breaking'
p5048
I18
sS'#bulking'
p5049
I1
sS'#tourists'
p5050
I1
sS'sandwich'
p5051
I4
sS'okay'
p5052
I8
sS'http://t.co/pixdxzpyfk'
p5053
I1
sS'algebra'
p5054
I1
sS'joint.'
p5055
I4
sS'#diabetus'
p5056
I1
sS'softball'
p5057
I1
sS'http://t.co/vn5piv9gi0'
p5058
I1
sS'#highupthere'
p5059
I1
sS'#crib'
p5060
I1
sS'short'
p5061
I7
sS'shady'
p5062
I1
sS'\xf0\x9f\x92\x85\xf0\x9f\x90\xb7\xf0\x9f\x90\xbd#pedicure'
p5063
I1
sS'sarahh_07'
p5064
I1
sS'???'
p5065
I1
sS"don't"
p5066
I33
sS'september'
p5067
I5
sS'@crashrider'
p5068
I1
sS'mission'
p5069
I1
sS'logan'
p5070
I1
sS'style'
p5071
I2
sS'#turn_up_juice'
p5072
I1
sS'#justme\xe2\x80\xa6'
p5073
I1
sS'mattress'
p5074
I3
sS'wildbilly'
p5075
I1
sS'nephew.'
p5076
I1
sS'#hot'
p5077
I1
sS'bout'
p5078
I1
sS'soccer'
p5079
I2
sS'might'
p5080
I10
sS'somebody'
p5081
I1
sS'@aidapauzi:'
p5082
I2
sS'bigger'
p5083
I1
sS'1password'
p5084
I1
sS'#londonisred\xe2\x80\xa6'
p5085
I1
sS'#thirdtweet'
p5086
I1
sS'weight'
p5087
I1
sS'http://t.co/pej7achxmb'
p5088
I1
sS'expect'
p5089
I1
sS'are...'
p5090
I1
sS'loops'
p5091
I1
sS'roof!'
p5092
I4
sS'country...#yolo'
p5093
I1
sS'prolly'
p5094
I2
sS'alcohol'
p5095
I1
sS'lols'
p5096
I1
sS'#wordedtuesday'
p5097
I2
sS'http://t.co/pfpyffp76j'
p5098
I1
sS'blaring'
p5099
I3
sS'guess'
p5100
I2
sS'cookie'
p5101
I1
sS'\xf0\x9f\x8f\x83\xf0\x9f\x8f\x83\xf0\x9f\x8f\x83\xf0\x9f\x8f\x83\xe2\x9c\x88\xef\xb8\x8f'
p5102
I1
sS'#helpme'
p5103
I1
sS'thrown'
p5104
I1
sS'lol!'
p5105
I1
sS'@krlox14'
p5106
I1
sS'liner...#yolo'
p5107
I3
sS'lol.'
p5108
I5
sS'bookbag'
p5109
I2
sS'throws'
p5110
I1
sS'feed'
p5111
I1
sS'explode.'
p5112
I1
sS'feel'
p5113
I27
sS'fancy'
p5114
I2
sS'@ash_taylor93'
p5115
I1
sS'\xf0\x9f\x98\x82\xf0\x9f\x94\xab'
p5116
I1
sS'story'
p5117
I4
sS'@neon_cathedral:'
p5118
I1
sS'#rt'
p5119
I9
sS'paint'
p5120
I1
sS'suit...#yolo'
p5121
I2
sS'@cuhz_mauricio'
p5122
I1
sS'#rl'
p5123
I1
sS'option'
p5124
I1
sS'@no_uh__'
p5125
I1
sS'hotel'
p5126
I1
sS'$7'
p5127
I1
sS'$5'
p5128
I2
sS'king'
p5129
I1
sS'kind'
p5130
I4
sS'mobile.'
p5131
I2
sS'#edc'
p5132
I2
sS'#edm'
p5133
I3
sS'meanwhile..'
p5134
I1
sS'@allietcaro:'
p5135
I4
sS'motivation'
p5136
I3
sS'@eleshaedmonds'
p5137
I1
sS'http://t.co/b4rl3wjrwh'
p5138
I1
sS'http://t.co/9q7dstsxpp'
p5139
I1
sS'http://t.co/zyxwsnalkw'
p5140
I1
sS'nights'
p5141
I1
sS'http://t.co/lizyicpdvp'
p5142
I2
sS'sandwiches'
p5143
I1
sS'yeahh'
p5144
I1
sS'youre'
p5145
I1
sS'#visual_learner'
p5146
I1
sS'#angelasadventure'
p5147
I1
sS'#startup'
p5148
I2
sS'nothing'
p5149
I9
sS'&lt;3'
p5150
I5
sS'#nothingwasthesame'
p5151
I1
sS'#zero_fucks_given'
p5152
I2
sS'night?'
p5153
I2
sS'night!'
p5154
I4
sS'http://t.co/xf9tb61loc'
p5155
I1
sS'#blazebare'
p5156
I1
sS'night.'
p5157
I2
sS'@notyungmuh:'
p5158
I4
sS'@nikkisixx'
p5159
I1
sS'@gerardway'
p5160
I1
sS'shares'
p5161
I1
sS'mafcak'
p5162
I1
sS'believe'
p5163
I3
sS'bff'
p5164
I1
sS'#high'
p5165
I2
sS'drying...#yolo'
p5166
I1
sS'moser'
p5167
I1
sS'#magicmountain'
p5168
I1
sS'http://t.co/xaf1ei2zn3'
p5169
I1
sS'hit'
p5170
I2
sS'#existence'
p5171
I1
sS'#supertired'
p5172
I1
sS'#partyanimal'
p5173
I1
sS'longest'
p5174
I1
sS'thoughts...'
p5175
I1
sS'emails'
p5176
I1
sS'rt:'
p5177
I3
sS'whisky.'
p5178
I1
sS'would\xf0\x9f\x98\x82'
p5179
I2
sS'http://t.co/bigbresbnd'
p5180
I1
sS'\xf0\x9f\x98\x82\xf0\x9f\x99\x88\xf0\x9f\x99\x88\xf0\x9f\x99\x88'
p5181
I1
sS'quakin'
p5182
I1
sS'you!!'
p5183
I2
sS'wrote'
p5184
I2
sS'@yamil_lionaire:'
p5185
I1
sS'art'
p5186
I3
sS'swag...'
p5187
I1
sS'@edelman11:'
p5188
I2
sS'injecting'
p5189
I1
sS'#singapore'
p5190
I1
sS'sh*t'
p5191
I1
sS'deixando'
p5192
I1
sS'#sidehoe'
p5193
I1
sS'definitely'
p5194
I1
sS'cosplay'
p5195
I1
sS'freshmen'
p5196
I1
sS'afterwards.'
p5197
I1
sS'@wilkygilinsky'
p5198
I1
sS'http://t.co/uopsn0bt8d'
p5199
I1
sS'reading...probably'
p5200
I1
sS'watchin'
p5201
I1
sS'solo'
p5202
I3
sS'recently'
p5203
I1
sS'#livelife'
p5204
I2
sS'attention'
p5205
I1
sS'@jenncollins23'
p5206
I1
sS'outfit'
p5207
I2
sS'@emlauraguest'
p5208
I1
sS'today!!'
p5209
I1
sS'bar.'
p5210
I1
sS'http://t.c...'
p5211
I1
sS'#idc'
p5212
I1
sS'however?'
p5213
I1
sS'@ibrittany_ny:'
p5214
I7
sS'http://t.co/6hs0tbzbzd'
p5215
I2
sS'@syynth_:'
p5216
I1
sS'@cbcbooks'
p5217
I1
sS'f2p'
p5218
I1
sS'learn.'
p5219
I2
sS'#equissomoschavos'
p5220
I1
sS'@jef40_gg'
p5221
I1
sS'dudes'
p5222
I1
sS'there.'
p5223
I1
sS'duo'
p5224
I2
sS'there!'
p5225
I1
sS'closed...#yolo'
p5226
I1
sS'@carlenachahley:'
p5227
I1
sS'pa'
p5228
I2
sS'there:'
p5229
I3
sS'pe'
p5230
I1
sS'orioles'
p5231
I1
sS'woke'
p5232
I6
sS'pm'
p5233
I1
sS'flight'
p5234
I2
sS'#isitoctoberyet?'
p5235
I1
sS'all....'
p5236
I1
sS'demand'
p5237
I1
sS'frozen'
p5238
I2
sS'homework'
p5239
I7
sS'#hairporn'
p5240
I1
sS'#eat'
p5241
I2
sS'parents.'
p5242
I1
sS'stupidly)'
p5243
I1
sS'arrive!'
p5244
I1
sS'#bumpsetspike'
p5245
I2
sS'#ichbinkrass'
p5246
I1
sS'shirt'
p5247
I12
sS'noooo'
p5248
I1
sS'peoples'
p5249
I2
sS'higher'
p5250
I1
sS'aging!'
p5251
I1
sS'holidays'
p5252
I1
sS'#badinfluence'
p5253
I1
sS'@hopejolenee'
p5254
I2
sS'@tkallthetime'
p5255
I1
sS'lower'
p5256
I1
sS'http://t.co/q2whrmrsse'
p5257
I1
sS'people.'
p5258
I1
sS'@oyesdeeday'
p5259
I3
sS'@brandonnnnzzz'
p5260
I1
sS'#build'
p5261
I1
sS'#ig'
p5262
I1
sS'#is'
p5263
I2
sS'@oyesmusic'
p5264
I3
sS'@walmelo1150:'
p5265
I3
sS'http://t.co/lp3noja19j'
p5266
I1
sS'unlimited'
p5267
I1
sS'#friendshipgoals'
p5268
I1
sS'#selfdevelopment'
p5269
I1
sS'@d14m0nd55'
p5270
I2
sS'helpful'
p5271
I1
sS'#usa'
p5272
I1
sS'#crete'
p5273
I1
sS'@lijunnnnn'
p5274
I1
sS'separately'
p5275
I1
sS'#fitlife'
p5276
I2
sS'essential'
p5277
I1
sS'#wasteofmoney'
p5278
I1
sS'fucking'
p5279
I10
sS'http://t.co/nstsvnojyu'
p5280
I5
sS'#attitudeiseverything'
p5281
I1
sS'\xf0\x9f\x98\x8a\xf0\x9f\x92\x89'
p5282
I1
sS'#oluminero'
p5283
I1
sS'@emmat_rex'
p5284
I1
sS'knightcite.'
p5285
I1
sS'fish...#yolo'
p5286
I2
sS'prob'
p5287
I1
sS't_t'
p5288
I1
sS'shower.'
p5289
I1
sS's/o'
p5290
I5
sS'yaaassss'
p5291
I1
sS'cautious'
p5292
I3
sS"mcdonald's"
p5293
I2
sS'@phillips'
p5294
I1
sS'#homecoming2014'
p5295
I1
sS'\xf0\x9f\x98\x81\xf0\x9f\x98\x80\xf0\x9f\x98\x9b'
p5296
I1
sS'wanna'
p5297
I5
sS'@scott_ep3'
p5298
I1
sS'#sickest'
p5299
I1
sS'#clouds'
p5300
I1
sS'momma'
p5301
I1
sS'nigga'
p5302
I6
sS'pizza...#yolo'
p5303
I1
sS'rows'
p5304
I1
sS'http://t.co/fdet7wu5cj'
p5305
I1
sS'#americanbully'
p5306
I1
sS'fast'
p5307
I1
sS"we're"
p5308
I8
sS'bruh'
p5309
I2
sS'@jenna_williams1:'
p5310
I4
sS'#mementomori'
p5311
I1
sS'#represent'
p5312
I1
sS'cabbage...#yolo'
p5313
I1
sS'#mantweet'
p5314
I1
sS'4ever'
p5315
I1
sS'\xef\x98\x99'
p5316
I20
sS'dialated'
p5317
I1
sS'fries'
p5318
I3
sS'#docoolkidsstillsayyolo?'
p5319
I1
sS'highlight'
p5320
I1
sS'fried'
p5321
I1
sS'called'
p5322
I2
sS'problem.'
p5323
I1
sS'#tired'
p5324
I1
sS'#dance'
p5325
I1
sS'@sazilla:'
p5326
I1
sS'peace'
p5327
I1
sS'#tb'
p5328
I1
sS'nice'
p5329
I3
sS'matsirois'
p5330
I1
sS'problems'
p5331
I4
sS'weigh'
p5332
I1
sS'chocolate'
p5333
I2
sS'#englishlesson'
p5334
I1
sS'back.'
p5335
I3
sS'back!'
p5336
I1
sS'rules!'
p5337
I1
sS'gin.'
p5338
I2
sS'http://t.co/bctuzmihk9'
p5339
I1
sS'#like\xe2\x80\xa6'
p5340
I1
sS'gang'
p5341
I1
sS'#firsttweet'
p5342
I1
sS"aunty's"
p5343
I2
sS'deal!'
p5344
I1
sS'include'
p5345
I1
sS'deal?'
p5346
I3
sS'waiters'
p5347
I1
sS'http://t.co/aluqmqxx8y'
p5348
I1
sS'#truestory'
p5349
I1
sS'drinking'
p5350
I5
sS'#youngflyflashy'
p5351
I1
sS'#tcot'
p5352
I3
sS'http://t.co/glhsuucweu'
p5353
I1
sS'#getrisky'
p5354
I1
sS'http://t.co/2rqvb9xmrd'
p5355
I1
sS'car'
p5356
I2
sS'http://t.co/ouifm6x4dz'
p5357
I1
sS'http://t.co/eswywhu6s7'
p5358
I1
sS'acing'
p5359
I1
sS'shiok'
p5360
I1
sS"man's"
p5361
I1
sS'waiting'
p5362
I2
sS'armpit'
p5363
I1
sS'chose'
p5364
I1
sS'http://t.co/wqveebb2jn'
p5365
I1
sS'@derek_loretto:'
p5366
I1
sS'#holborn'
p5367
I1
sS'sexy'
p5368
I1
sS'#paintapicture'
p5369
I1
sS'calvin'
p5370
I1
sS'leaving'
p5371
I4
sS'draking'
p5372
I1
sS'#edinburgh'
p5373
I1
sS'bruv!'
p5374
I1
sS'@bruchjoel:'
p5375
I1
sS"dad's"
p5376
I2
sS'ludogrets'
p5377
I1
sS'#gomariners'
p5378
I2
sS'apple'
p5379
I3
sS'app'
p5380
I2
sS'@desusnice'
p5381
I1
sS'@mmmariely:'
p5382
I1
sS'ape'
p5383
I1
sS'use'
p5384
I9
sS'\xe2\x80\x9c@carlycox22:'
p5385
I1
sS'iced'
p5386
I1
sS'prison...#yolo'
p5387
I1
sS'yomf'
p5388
I3
sS'hard!'
p5389
I1
sS'penis'
p5390
I1
sS'#firstworldproblems'
p5391
I1
sS'#gettinoldaintfunafterawhile'
p5392
I1
sS'women'
p5393
I2
sS'\xf0\x9f\x98\x8d\xf0\x9f\x98\x8d\xf0\x9f\x98\x98\xf0\x9f\x98\x98'
p5394
I1
sS'#torontallo'
p5395
I1
sS'#bot\xe9\x9b\xaa'
p5396
I2
sS'http://t.co/pkqm0r3jzd'
p5397
I1
sS'#selfieking'
p5398
I1
sS'\xf0\x9f\x91\x8a\xf0\x9f\x91\x8c#swagquotes'
p5399
I1
sS'.@ultimatelovah'
p5400
I1
sS'http://t.co/jlj8h5xzq9'
p5401
I1
sS'#twistedinsane'
p5402
I1
sS'tag'
p5403
I2
sS'something'
p5404
I3
sS'hahahah.'
p5405
I1
sS'onions'
p5406
I1
sS'mid-term'
p5407
I1
sS'sit'
p5408
I1
sS'#best#friend'
p5409
I1
sS'six'
p5410
I1
sS'\xf0\x9f\x98\x82\xf0\x9f\x92\x95\xf0\x9f\x92\xaa\xf0\x9f\x8f\x83\xf0\x9f\x98\x8f'
p5411
I2
sS'instead'
p5412
I8
sS'#favorite'
p5413
I5
sS'@nialynch'
p5414
I1
sS'attend'
p5415
I1
sS'#badass'
p5416
I1
sS'#turisteando'
p5417
I17
sS'moving!'
p5418
I1
sS'taco'
p5419
I2
sS'@sam_metcalf'
p5420
I1
sS'#pedamillon'
p5421
I1
sS'#dublin'
p5422
I1
sS'@baileeygeraci'
p5423
I1
sS'light'
p5424
I2
sS'@sunitapetroff'
p5425
I1
sS'crawling'
p5426
I1
sS'batter'
p5427
I1
sS'#performing'
p5428
I2
sS'rusted'
p5429
I1
sS'#sorrybill'
p5430
I1
sS'live..'
p5431
I1
sS'@\xe2\x80\xa6'
p5432
I1
sS'#instadaily'
p5433
I1
sS'looks'
p5434
I3
sS'orange!'
p5435
I1
sS'#sweet'
p5436
I1
sS'fannypack'
p5437
I1
sS'#luvhim'
p5438
I1
sS'permanent'
p5439
I1
sS'orange'
p5440
I3
sS'covered'
p5441
I1
sS'holiday'
p5442
I1
sS'flex'
p5443
I1
sS'happened.'
p5444
I1
sS'look!'
p5445
I1
sS'#free'
p5446
I1
sS'practice'
p5447
I1
sS'versace'
p5448
I1
sS'oranges'
p5449
I1
sS'@sammyfam'
p5450
I1
sS'(allentown)'
p5451
I1
sS'tram'
p5452
I1
sS'lining!'
p5453
I1
sS'billy'
p5454
I1
sS'billz'
p5455
I1
sS'rockets'
p5456
I1
sS'pakai'
p5457
I2
sS'#football'
p5458
I1
sS'buccellaties'
p5459
I1
sS'@bbrittingham42'
p5460
I1
sS'#nra'
p5461
I1
sS'#cheers'
p5462
I1
sS'80'
p5463
I1
sS'81'
p5464
I1
sS'shirtless?'
p5465
I1
sS'lt6'
p5466
I1
sS'thots'
p5467
I1
sS'#20th'
p5468
I1
sS'#live'
p5469
I7
sS'#ky'
p5470
I2
sS'zouk!'
p5471
I1
sS'http://t.co/hzxboptrzn'
p5472
I1
sS'#todotranqui'
p5473
I1
sS'molly'
p5474
I1
sS'@justinryoung'
p5475
I1
sS'chillaxing!'
p5476
I1
sS'pendant'
p5477
I3
sS'http://t.co/xu4sktlktf'
p5478
I1
sS'#werebels'
p5479
I1
sS'#disney'
p5480
I1
sS'#dowhatever'
p5481
I1
sS'biting'
p5482
I1
sS'http://t.co/p3jza9f5uc'
p5483
I1
sS'#instastyle'
p5484
I2
sS'http://t.co/yopztbwkw9'
p5485
I1
sS'twat'
p5486
I1
sS'proposing'
p5487
I1
sS'@hoongchuen'
p5488
I1
sS"doesn't"
p5489
I10
sS'enough?'
p5490
I1
sS'enough.'
p5491
I1
sS'#plur'
p5492
I2
sS'#livinlife2k14'
p5493
I1
sS'shell'
p5494
I1
sS'#ndapeduli'
p5495
I1
sS'ghs'
p5496
I4
sS'#lasamo'
p5497
I1
sS'#musichelps'
p5498
I1
sS'lolololol'
p5499
I1
sS'faut'
p5500
I1
sS'http://t.co/w08zn8q1hs\xe2\x80\x9d'
p5501
I2
sS'angle'
p5502
I1
sS'http://t.co/qb9x3x6j1g'
p5503
I1
sS'pre-game'
p5504
I1
sS'http://t.co/araikns3yx'
p5505
I1
sS'@pinthousepizza'
p5506
I1
sS'#photographer'
p5507
I1
sS'bagel'
p5508
I1
sS'#graduationrap'
p5509
I1
sS'campus.'
p5510
I1
sS'@blakegarris'
p5511
I1
sS'#fresh'
p5512
I1
sS'http://t.co/miqqgfz2fa'
p5513
I1
sS'bet!!!'
p5514
I1
sS'whr'
p5515
I2
sS'class'
p5516
I26
sS'#classy'
p5517
I1
sS'already!!'
p5518
I1
sS'looked'
p5519
I1
sS'@cynthializzeth_:'
p5520
I1
sS'twitting'
p5521
I1
sS'#selfiesteal'
p5522
I1
sS'spanking'
p5523
I1
sS'chapters'
p5524
I1
sS'#afternoontea'
p5525
I1
sS'chicken'
p5526
I4
sS'debate'
p5527
I1
sS'true!'
p5528
I1
sS'#instafun'
p5529
I1
sS'@lucyconnolly_97:'
p5530
I1
sS'@irwinsxxgiggle:'
p5531
I2
sS'workin'
p5532
I1
sS'watching'
p5533
I7
sS'@fitnessffreedom:'
p5534
I1
sS'woooooo'
p5535
I1
sS'words'
p5536
I4
sS'chips'
p5537
I1
sS'cries...#yolo'
p5538
I1
sS'#living'
p5539
I1
sS'meeting?!?!'
p5540
I1
sS'#surveys'
p5541
I3
sS'#popo'
p5542
I1
sS'sahshahh2221i4s'
p5543
I1
sS'view'
p5544
I1
sS'http://t.co/vwrjpq771h'
p5545
I1
sS'arsed'
p5546
I1
sS'http://t.co/dfke9wg8hy'
p5547
I1
sS'dlc'
p5548
I1
sS'http://t.co/syesacxgsv'
p5549
I1
sS'pelikat.'
p5550
I1
sS'favor'
p5551
I1
sS'http://t.co/4gslpxhqsy'
p5552
I1
sS'outfit...'
p5553
I1
sS'@geadivina:'
p5554
I1
sS'@9zavaneara'
p5555
I2
sS'exam'
p5556
I5
sS'joy'
p5557
I1
sS'job'
p5558
I1
sS'joe'
p5559
I2
sS'ago...'
p5560
I1
sS'friday!?!?!!?'
p5561
I1
sS'#understandmystory'
p5562
I2
sS'wall'
p5563
I2
sS'shoving'
p5564
I2
sS'walk'
p5565
I3
sS'#different'
p5566
I1
sS'@echoics!'
p5567
I3
sS'#realmadrid'
p5568
I1
sS'#theatre'
p5569
I1
sS'offers'
p5570
I1
sS'bbz'
p5571
I1
sS'http://t.co/g47uybocmb'
p5572
I1
sS'class...#yolo'
p5573
I1
sS'box...#yolo'
p5574
I1
sS'mike'
p5575
I3
sS'liverpool'
p5576
I1
sS'hmm'
p5577
I1
sS'http://t.co/60vpeikmzq'
p5578
I1
sS'@charlieforniaa:'
p5579
I1
sS'vimeo'
p5580
I1
sS'http://t.co/3y9ryy1mo0'
p5581
I1
sS'hovering'
p5582
I1
sS'http://t.co/ofyn7bw1fn'
p5583
I1
sS'#instaswag'
p5584
I3
sS'#muj'
p5585
I1
sS'#ythelnot'
p5586
I1
sS'no.'
p5587
I2
sS'#oomfm'
p5588
I1
sS'stats!!!!'
p5589
I1
sS'thug'
p5590
I2
sS'buddhist'
p5591
I1
sS'cross'
p5592
I2
sS'gets'
p5593
I5
sS'yooo'
p5594
I1
sS'#lol'
p5595
I33
sS'jemima'
p5596
I1
sS'http://t.co/c9wxfzrqzk'
p5597
I1
sS'http://t.co/shb8a8bpdl'
p5598
I1
sS'#motivation'
p5599
I1
sS'student'
p5600
I1
sS'pedal'
p5601
I1
sS'whale'
p5602
I6
sS'lobby'
p5603
I2
sS'approve'
p5604
I1
sS'@skynews:'
p5605
I1
sS'http://t.co/1ldirragax.'
p5606
I1
sS'english'
p5607
I2
sS'excessive'
p5608
I2
sS'cried'
p5609
I1
sS'#ichbinderbeste'
p5610
I1
sS'#singaporegp'
p5611
I1
sS'@biitchitzbarbie:'
p5612
I1
sS'@lorenzagb'
p5613
I1
sS'happiness'
p5614
I1
sS'drunk'
p5615
I3
sS'#tbt'
p5616
I3
sS'#formula1'
p5617
I1
sS'identical'
p5618
I1
sS"who's"
p5619
I4
sS'http://t.co/x8zg94gjxq'
p5620
I1
sS'church...#yolo'
p5621
I2
sS'http://t.co/voifvocdot'
p5622
I1
sS'#swag?'
p5623
I1
sS'know'
p5624
I21
sS'press'
p5625
I1
sS'doughnut'
p5626
I1
sS'#breakfast'
p5627
I1
sS'@marissafarnkoff'
p5628
I1
sS'#newbie'
p5629
I1
sS'@vianeyg95'
p5630
I1
sS'http://t.co/3bujppckgi'
p5631
I2
sS'virginity'
p5632
I4
sS'http://t.co/sxwakklwbd'
p5633
I1
sS'tumble'
p5634
I1
sS'scared'
p5635
I2
sS'partying!'
p5636
I1
sS'employment'
p5637
I1
sS'@benandjerrys'
p5638
I2
sS'#ttot'
p5639
I1
sS'lead'
p5640
I3
sS'markers'
p5641
I3
sS'#noshame'
p5642
I1
sS'slut'
p5643
I1
sS'devil'
p5644
I1
sS'getting'
p5645
I19
sS'\xe2\x9c\x8c\xef\xb8\x8f\xf0\x9f\x92\x96\xf0\x9f\x8e\xb5'
p5646
I1
sS'#babygirlsia'
p5647
I1
sS'#everydayisaflannelday'
p5648
I1
sS'fear'
p5649
I1
sS'swear'
p5650
I3
sS'sweat'
p5651
I1
sS'@amsarahic'
p5652
I2
sS'http://t.co/mlr0anrfs7'
p5653
I1
sS'weather'
p5654
I1
sS'home!!!!!'
p5655
I2
sS'tamal'
p5656
I1
sS'#me'
p5657
I2
sS'#sugar'
p5658
I1
sS'kidding'
p5659
I2
sS'#entrepreneurlife'
p5660
I1
sS'kane'
p5661
I1
sS'alexa'
p5662
I1
sS'shank'
p5663
I1
sS"i've"
p5664
I9
sS'\xe2\x80\x9c@pmazzindustries:'
p5665
I1
sS'bitches'
p5666
I2
sS'ow!'
p5667
I1
sS'this!'
p5668
I1
sS'made'
p5669
I6
sS'@stephenking'
p5670
I1
sS'whether'
p5671
I1
sS'this.'
p5672
I3
sS'#losangeles'
p5673
I1
sS'catching'
p5674
I1
sS'trip...#yolo'
p5675
I2
sS'cake'
p5676
I1
sS'car.'
p5677
I1
sS'#night'
p5678
I2
sS'amiright'
p5679
I1
sS'mutual'
p5680
I1
sS'#kasisejatumisai'
p5681
I1
sS'.#yolo'
p5682
I1
sS'#rebel!!!!!!!1!!'
p5683
I1
sS'book'
p5684
I5
sS'sick'
p5685
I3
sS'all-nighter.'
p5686
I1
sS'saying...'
p5687
I1
sS'incredibly'
p5688
I1
sS'june'
p5689
I2
sS'#letsgetfat'
p5690
I2
sS'#degrassi'
p5691
I1
sS'kinda'
p5692
I4
sS'children...#yolo'
p5693
I1
sS'#getfitfor\xe2\x80\xa6'
p5694
I1
sS'sase'
p5695
I1
sS'http://t.co/4pgbkogerc'
p5696
I1
s.